(lp1
(lp2
I2
aI0
aI0
aa(lp3
I2
aI0
aI0
aa(lp4
I3
aI0
aI0
aa(lp5
I2
aI0
aI0
aa(lp6
I2
aI0
aI0
aa(lp7
I2
aI0
aI0
aa(lp8
I9
aI0
aI0
aa(lp9
I2
aI0
aI0
aa(lp10
I5
aI0
aI0
aa(lp11
I4
aI0
aI0
aa(lp12
I4
aI0
aI0
aa(lp13
I2
aI0
aI0
aa(lp14
I2
aI0
aI0
aa(lp15
I2
aI0
aI0
aa(lp16
I2
aI0
aI0
aa(lp17
I2
aI0
aI0
aa(lp18
I5
aI0
aI0
aa(lp19
I4
aI0
aI0
aa(lp20
I12
aI0
aI0
aa(lp21
I3
aI0
aI0
aa(lp22
I3
aI0
aI0
aa(lp23
I2
aI0
aI0
aa(lp24
I2
aI0
aI0
aa(lp25
I3
aI0
aI0
aa(lp26
I3
aI0
aI0
aa(lp27
I3
aI0
aI0
aa(lp28
I2
aI0
aI0
aa(lp29
I3
aI0
aI0
aa(lp30
I2
aI0
aI0
aa(lp31
I2
aI0
aI0
aa(lp32
I2
aI0
aI0
aa(lp33
I3
aI0
aI0
aa(lp34
I2
aI0
aI0
aa(lp35
I2
aI0
aI0
aa(lp36
I5
aI0
aI0
aa(lp37
I2
aI0
aI0
aa(lp38
I4
aI0
aI0
aa(lp39
I2
aI0
aI0
aa(lp40
I15
aI0
aI0
aa(lp41
I2
aI0
aI0
aa(lp42
I2
aI0
aI0
aa(lp43
I5
aI0
aI0
aa(lp44
I2
aI0
aI0
aa(lp45
I8
aI0
aI0
aa(lp46
I12
aI0
aI0
aa(lp47
I2
aI0
aI0
aa(lp48
I2
aI0
aI0
aa(lp49
I2
aI0
aI0
aa(lp50
I2
aI0
aI0
aa(lp51
I2
aI0
aI0
aa(lp52
I2
aI0
aI0
aa(lp53
I3
aI0
aI0
aa(lp54
I2
aI0
aI0
aa(lp55
I2
aI0
aI0
aa(lp56
I3
aI0
aI0
aa(lp57
I4
aI0
aI0
aa(lp58
I2
aI0
aI0
aa(lp59
I2
aI0
aI0
aa(lp60
I10
aI0
aI0
aa(lp61
I3
aI0
aI0
aa(lp62
I2
aI0
aI0
aa(lp63
I2
aI0
aI0
aa(lp64
I2
aI0
aI0
aa(lp65
I4
aI0
aI0
aa(lp66
I3
aI0
aI0
aa(lp67
I2
aI0
aI0
aa(lp68
I2
aI0
aI0
aa(lp69
I3
aI0
aI0
aa(lp70
I2
aI0
aI0
aa(lp71
I5
aI0
aI0
aa(lp72
I4
aI0
aI0
aa(lp73
I2
aI0
aI0
aa(lp74
I5
aI0
aI0
aa(lp75
I2
aI0
aI0
aa(lp76
I5
aI0
aI0
aa(lp77
I3
aI0
aI0
aa(lp78
I2
aI0
aI0
aa(lp79
I2
aI0
aI0
aa(lp80
I2
aI0
aI0
aa(lp81
I11
aI0
aI0
aa(lp82
I3
aI0
aI0
aa(lp83
I6
aI0
aI0
aa(lp84
I2
aI0
aI0
aa(lp85
I2
aI0
aI0
aa(lp86
I2
aI0
aI0
aa(lp87
I2
aI0
aI0
aa(lp88
I5
aI0
aI0
aa(lp89
I2
aI0
aI0
aa(lp90
I3
aI0
aI0
aa(lp91
I2
aI0
aI0
aa(lp92
I2
aI0
aI0
aa(lp93
I2
aI0
aI0
aa(lp94
I4
aI0
aI0
aa(lp95
I2
aI0
aI0
aa(lp96
I3
aI0
aI0
aa(lp97
I5
aI0
aI0
aa(lp98
I2
aI0
aI0
aa(lp99
I2
aI0
aI0
aa(lp100
I3
aI0
aI0
aa(lp101
I2
aI0
aI0
aa(lp102
I2
aI0
aI0
aa(lp103
I3
aI0
aI0
aa(lp104
I2
aI0
aI0
aa(lp105
I3
aI0
aI0
aa(lp106
I4
aI0
aI0
aa(lp107
I2
aI0
aI0
aa(lp108
I2
aI0
aI0
aa(lp109
I5
aI0
aI0
aa(lp110
I2
aI0
aI0
aa(lp111
I2
aI0
aI0
aa(lp112
I2
aI0
aI0
aa(lp113
I2
aI0
aI0
aa(lp114
I3
aI0
aI0
aa(lp115
I3
aI0
aI0
aa(lp116
I5
aI0
aI0
aa(lp117
I3
aI0
aI0
aa(lp118
I2
aI0
aI0
aa(lp119
I4
aI0
aI0
aa(lp120
I4
aI0
aI0
aa(lp121
I2
aI0
aI0
aa(lp122
I2
aI0
aI0
aa(lp123
I2
aI0
aI0
aa(lp124
I2
aI0
aI0
aa(lp125
I2
aI0
aI0
aa(lp126
I2
aI0
aI0
aa(lp127
I2
aI0
aI0
aa(lp128
I4
aI0
aI0
aa(lp129
I2
aI0
aI0
aa(lp130
I4
aI0
aI0
aa(lp131
I2
aI0
aI0
aa(lp132
I2
aI0
aI0
aa(lp133
I4
aI0
aI0
aa(lp134
I3
aI0
aI0
aa(lp135
I8
aI0
aI0
aa(lp136
I3
aI0
aI0
aa(lp137
I2
aI0
aI0
aa(lp138
I2
aI0
aI0
aa(lp139
I4
aI0
aI0
aa(lp140
I3
aI0
aI0
aa(lp141
I21
aI0
aI0
aa(lp142
I3
aI0
aI0
aa(lp143
I2
aI0
aI0
aa(lp144
I2
aI0
aI0
aa(lp145
I3
aI0
aI0
aa(lp146
I4
aI0
aI0
aa(lp147
I2
aI0
aI0
aa(lp148
I2
aI0
aI0
aa(lp149
I3
aI0
aI0
aa(lp150
I3
aI0
aI0
aa(lp151
I2
aI0
aI0
aa(lp152
I2
aI0
aI0
aa(lp153
I2
aI0
aI0
aa(lp154
I5
aI0
aI0
aa(lp155
I2
aI0
aI0
aa(lp156
I2
aI0
aI0
aa(lp157
I6
aI0
aI0
aa(lp158
I4
aI0
aI0
aa(lp159
I3
aI0
aI0
aa(lp160
I2
aI0
aI0
aa(lp161
I2
aI0
aI0
aa(lp162
I2
aI0
aI0
aa(lp163
I4
aI0
aI0
aa(lp164
I2
aI0
aI0
aa(lp165
I3
aI0
aI0
aa(lp166
I3
aI0
aI0
aa(lp167
I2
aI0
aI0
aa(lp168
I2
aI0
aI0
aa(lp169
I2
aI0
aI0
aa(lp170
I2
aI0
aI0
aa(lp171
I3
aI0
aI0
aa(lp172
I4
aI0
aI0
aa(lp173
I3
aI0
aI0
aa(lp174
I3
aI0
aI0
aa(lp175
I2
aI0
aI0
aa(lp176
I3
aI0
aI0
aa(lp177
I2
aI0
aI0
aa(lp178
I4
aI0
aI0
aa(lp179
I3
aI0
aI0
aa(lp180
I3
aI0
aI0
aa(lp181
I3
aI0
aI0
aa(lp182
I4
aI0
aI0
aa(lp183
I2
aI0
aI0
aa(lp184
I2
aI0
aI0
aa(lp185
I3
aI0
aI0
aa(lp186
I2
aI0
aI0
aa(lp187
I3
aI0
aI0
aa(lp188
I3
aI0
aI0
aa(lp189
I5
aI0
aI0
aa(lp190
I3
aI0
aI0
aa(lp191
I2
aI0
aI0
aa(lp192
I2
aI0
aI0
aa(lp193
I2
aI0
aI0
aa(lp194
I2
aI0
aI0
aa(lp195
I2
aI0
aI0
aa(lp196
I3
aI0
aI0
aa(lp197
I2
aI0
aI0
aa(lp198
I2
aI0
aI0
aa(lp199
I3
aI0
aI0
aa(lp200
I2
aI0
aI0
aa(lp201
I2
aI0
aI0
aa(lp202
I2
aI0
aI0
aa(lp203
I2
aI0
aI0
aa(lp204
I2
aI0
aI0
aa(lp205
I2
aI0
aI0
aa(lp206
I2
aI0
aI0
aa(lp207
I16
aI0
aI0
aa(lp208
I6
aI0
aI0
aa(lp209
I5
aI0
aI0
aa(lp210
I2
aI0
aI0
aa(lp211
I2
aI0
aI0
aa(lp212
I4
aI0
aI0
aa(lp213
I4
aI0
aI0
aa(lp214
I3
aI0
aI0
aa(lp215
I3
aI0
aI0
aa(lp216
I2
aI0
aI0
aa(lp217
I3
aI0
aI0
aa(lp218
I2
aI0
aI0
aa(lp219
I10
aI0
aI0
aa(lp220
I3
aI0
aI0
aa(lp221
I3
aI0
aI0
aa(lp222
I3
aI0
aI0
aa(lp223
I2
aI0
aI0
aa(lp224
I3
aI0
aI0
aa(lp225
I2
aI0
aI0
aa(lp226
I2
aI0
aI0
aa(lp227
I2
aI0
aI0
aa(lp228
I3
aI0
aI0
aa(lp229
I4
aI0
aI0
aa(lp230
I4
aI0
aI0
aa(lp231
I3
aI0
aI0
aa(lp232
I2
aI0
aI0
aa(lp233
I3
aI0
aI0
aa(lp234
I2
aI0
aI0
aa(lp235
I4
aI0
aI0
aa(lp236
I2
aI0
aI0
aa(lp237
I3
aI0
aI0
aa(lp238
I3
aI0
aI0
aa(lp239
I2
aI0
aI0
aa(lp240
I2
aI0
aI0
aa(lp241
I2
aI0
aI0
aa(lp242
I2
aI0
aI0
aa(lp243
I2
aI0
aI0
aa(lp244
I3
aI0
aI0
aa(lp245
I2
aI0
aI0
aa(lp246
I2
aI0
aI0
aa(lp247
I2
aI0
aI0
aa(lp248
I2
aI0
aI0
aa(lp249
I2
aI0
aI0
aa(lp250
I5
aI0
aI0
aa(lp251
I4
aI0
aI0
aa(lp252
I2
aI0
aI0
aa(lp253
I2
aI0
aI0
aa(lp254
I2
aI0
aI0
aa(lp255
I2
aI0
aI0
aa(lp256
I2
aI0
aI0
aa(lp257
I2
aI0
aI0
aa(lp258
I2
aI0
aI0
aa(lp259
I5
aI0
aI0
aa(lp260
I2
aI0
aI0
aa(lp261
I3
aI0
aI0
aa(lp262
I3
aI0
aI0
aa(lp263
I4
aI0
aI0
aa(lp264
I2
aI0
aI0
aa(lp265
I2
aI0
aI0
aa(lp266
I2
aI0
aI0
aa(lp267
I2
aI0
aI0
aa(lp268
I2
aI0
aI0
aa(lp269
I2
aI0
aI0
aa(lp270
I2
aI0
aI0
aa(lp271
I3
aI0
aI0
aa(lp272
I6
aI0
aI0
aa(lp273
I2
aI0
aI0
aa(lp274
I2
aI0
aI0
aa(lp275
I2
aI0
aI0
aa(lp276
I3
aI0
aI0
aa(lp277
I2
aI0
aI0
aa(lp278
I2
aI0
aI0
aa(lp279
I2
aI0
aI0
aa(lp280
I4
aI0
aI0
aa(lp281
I2
aI0
aI0
aa(lp282
I8
aI0
aI0
aa(lp283
I3
aI0
aI0
aa(lp284
I2
aI0
aI0
aa(lp285
I2
aI0
aI0
aa(lp286
I3
aI0
aI0
aa(lp287
I2
aI0
aI0
aa(lp288
I3
aI0
aI0
aa(lp289
I2
aI0
aI0
aa(lp290
I2
aI0
aI0
aa(lp291
I2
aI0
aI0
aa(lp292
I2
aI0
aI0
aa(lp293
I2
aI0
aI0
aa(lp294
I4
aI0
aI0
aa(lp295
I2
aI0
aI0
aa(lp296
I2
aI0
aI0
aa(lp297
I2
aI0
aI0
aa(lp298
I2
aI0
aI0
aa(lp299
I2
aI0
aI0
aa(lp300
I2
aI0
aI0
aa(lp301
I2
aI0
aI0
aa(lp302
I2
aI0
aI0
aa(lp303
I2
aI0
aI0
aa(lp304
I3
aI0
aI0
aa(lp305
I2
aI0
aI0
aa(lp306
I2
aI0
aI0
aa(lp307
I3
aI0
aI0
aa(lp308
I4
aI0
aI0
aa(lp309
I3
aI0
aI0
aa(lp310
I9
aI0
aI0
aa(lp311
I5
aI0
aI0
aa(lp312
I3
aI0
aI0
aa(lp313
I2
aI0
aI0
aa(lp314
I2
aI0
aI0
aa(lp315
I2
aI0
aI0
aa(lp316
I5
aI0
aI0
aa(lp317
I3
aI0
aI0
aa(lp318
I7
aI0
aI0
aa(lp319
I2
aI0
aI0
aa(lp320
I3
aI0
aI0
aa(lp321
I2
aI0
aI0
aa(lp322
I3
aI0
aI0
aa(lp323
I2
aI0
aI0
aa(lp324
I3
aI0
aI0
aa(lp325
I2
aI0
aI0
aa(lp326
I2
aI0
aI0
aa(lp327
I9
aI0
aI0
aa(lp328
I2
aI0
aI0
aa(lp329
I3
aI0
aI0
aa(lp330
I3
aI0
aI0
aa(lp331
I2
aI0
aI0
aa(lp332
I2
aI0
aI0
aa(lp333
I2
aI0
aI0
aa(lp334
I2
aI0
aI0
aa(lp335
I2
aI0
aI0
aa(lp336
I2
aI0
aI0
aa(lp337
I2
aI0
aI0
aa(lp338
I2
aI0
aI0
aa(lp339
I2
aI0
aI0
aa(lp340
I2
aI0
aI0
aa(lp341
I2
aI0
aI0
aa(lp342
I2
aI0
aI0
aa(lp343
I3
aI0
aI0
aa(lp344
I2
aI0
aI0
aa(lp345
I4
aI0
aI0
aa(lp346
I3
aI0
aI0
aa(lp347
I2
aI0
aI0
aa(lp348
I2
aI0
aI0
aa(lp349
I2
aI0
aI0
aa(lp350
I2
aI0
aI0
aa(lp351
I2
aI0
aI0
aa(lp352
I3
aI0
aI0
aa(lp353
I5
aI0
aI0
aa(lp354
I3
aI0
aI0
aa(lp355
I3
aI0
aI0
aa(lp356
I2
aI0
aI0
aa(lp357
I3
aI0
aI0
aa(lp358
I3
aI0
aI0
aa(lp359
I2
aI0
aI0
aa(lp360
I9
aI0
aI0
aa(lp361
I4
aI0
aI0
aa(lp362
I2
aI0
aI0
aa(lp363
I6
aI0
aI0
aa(lp364
I2
aI0
aI0
aa(lp365
I2
aI0
aI0
aa(lp366
I2
aI0
aI0
aa(lp367
I2
aI0
aI0
aa(lp368
I2
aI0
aI0
aa(lp369
I2
aI0
aI0
aa(lp370
I3
aI0
aI0
aa(lp371
I2
aI0
aI0
aa(lp372
I2
aI0
aI0
aa(lp373
I3
aI0
aI0
aa(lp374
I2
aI0
aI0
aa(lp375
I2
aI0
aI0
aa(lp376
I2
aI0
aI0
aa(lp377
I3
aI0
aI0
aa(lp378
I2
aI0
aI0
aa(lp379
I3
aI0
aI0
aa(lp380
I3
aI0
aI0
aa(lp381
I4
aI0
aI0
aa(lp382
I4
aI0
aI0
aa(lp383
I2
aI0
aI0
aa(lp384
I3
aI0
aI0
aa(lp385
I3
aI0
aI0
aa(lp386
I2
aI0
aI0
aa(lp387
I4
aI0
aI0
aa(lp388
I3
aI0
aI0
aa(lp389
I2
aI0
aI0
aa(lp390
I2
aI0
aI0
aa(lp391
I2
aI0
aI0
aa(lp392
I3
aI0
aI0
aa(lp393
I4
aI0
aI0
aa(lp394
I5
aI0
aI0
aa(lp395
I2
aI0
aI0
aa(lp396
I3
aI0
aI0
aa(lp397
I2
aI0
aI0
aa(lp398
I2
aI0
aI0
aa(lp399
I2
aI0
aI0
aa(lp400
I2
aI0
aI0
aa(lp401
I3
aI0
aI0
aa(lp402
I2
aI0
aI0
aa(lp403
I5
aI0
aI0
aa(lp404
I2
aI0
aI0
aa(lp405
I2
aI0
aI0
aa(lp406
I2
aI0
aI0
aa(lp407
I2
aI0
aI0
aa(lp408
I2
aI0
aI0
aa(lp409
I2
aI0
aI0
aa(lp410
I2
aI0
aI0
aa(lp411
I3
aI0
aI0
aa(lp412
I3
aI0
aI0
aa(lp413
I2
aI0
aI0
aa(lp414
I2
aI0
aI0
aa(lp415
I2
aI0
aI0
aa(lp416
I2
aI0
aI0
aa(lp417
I2
aI0
aI0
aa(lp418
I3
aI0
aI0
aa(lp419
I2
aI0
aI0
aa(lp420
I2
aI0
aI0
aa(lp421
I2
aI0
aI0
aa(lp422
I2
aI0
aI0
aa(lp423
I2
aI0
aI0
aa(lp424
I2
aI0
aI0
aa(lp425
I3
aI0
aI0
aa(lp426
I2
aI0
aI0
aa(lp427
I2
aI0
aI0
aa(lp428
I9
aI0
aI0
aa(lp429
I4
aI0
aI0
aa(lp430
I2
aI0
aI0
aa(lp431
I3
aI0
aI0
aa(lp432
I2
aI0
aI0
aa(lp433
I3
aI0
aI0
aa(lp434
I3
aI0
aI0
aa(lp435
I3
aI0
aI0
aa(lp436
I2
aI0
aI0
aa(lp437
I2
aI0
aI0
aa(lp438
I5
aI0
aI0
aa(lp439
I2
aI0
aI0
aa(lp440
I3
aI0
aI0
aa(lp441
I2
aI0
aI0
aa(lp442
I8
aI0
aI0
aa(lp443
I2
aI0
aI0
aa(lp444
I2
aI0
aI0
aa(lp445
I2
aI0
aI0
aa(lp446
I4
aI0
aI0
aa(lp447
I2
aI0
aI0
aa(lp448
I3
aI0
aI0
aa(lp449
I4
aI0
aI0
aa(lp450
I2
aI0
aI0
aa(lp451
I2
aI0
aI0
aa(lp452
I2
aI0
aI0
aa(lp453
I2
aI0
aI0
aa(lp454
I2
aI0
aI0
aa(lp455
I2
aI0
aI0
aa(lp456
I2
aI0
aI0
aa(lp457
I2
aI0
aI0
aa(lp458
I4
aI0
aI0
aa(lp459
I2
aI0
aI0
aa(lp460
I2
aI0
aI0
aa(lp461
I2
aI0
aI0
aa(lp462
I3
aI0
aI0
aa(lp463
I2
aI0
aI0
aa(lp464
I2
aI0
aI0
aa(lp465
I2
aI0
aI0
aa(lp466
I4
aI0
aI0
aa(lp467
I4
aI0
aI0
aa(lp468
I2
aI0
aI0
aa(lp469
I2
aI0
aI0
aa(lp470
I2
aI0
aI0
aa(lp471
I6
aI0
aI0
aa(lp472
I2
aI0
aI0
aa(lp473
I2
aI0
aI0
aa(lp474
I2
aI0
aI0
aa(lp475
I2
aI0
aI0
aa(lp476
I2
aI0
aI0
aa(lp477
I2
aI0
aI0
aa(lp478
I2
aI0
aI0
aa(lp479
I2
aI0
aI0
aa(lp480
I2
aI0
aI0
aa(lp481
I4
aI0
aI0
aa(lp482
I3
aI0
aI0
aa(lp483
I6
aI0
aI0
aa(lp484
I2
aI0
aI0
aa(lp485
I2
aI0
aI0
aa(lp486
I2
aI0
aI0
aa(lp487
I2
aI0
aI0
aa(lp488
I2
aI0
aI0
aa(lp489
I2
aI0
aI0
aa(lp490
I8
aI0
aI0
aa(lp491
I2
aI0
aI0
aa(lp492
I2
aI0
aI0
aa(lp493
I4
aI0
aI0
aa(lp494
I2
aI0
aI0
aa(lp495
I6
aI0
aI0
aa(lp496
I2
aI0
aI0
aa(lp497
I4
aI0
aI0
aa(lp498
I2
aI0
aI0
aa(lp499
I2
aI0
aI0
aa(lp500
I9
aI0
aI0
aa(lp501
I5
aI0
aI0
aa(lp502
I2
aI0
aI0
aa(lp503
I2
aI0
aI0
aa(lp504
I2
aI0
aI0
aa(lp505
I2
aI0
aI0
aa(lp506
I2
aI0
aI0
aa(lp507
I2
aI0
aI0
aa(lp508
I3
aI0
aI0
aa(lp509
I3
aI0
aI0
aa(lp510
I2
aI0
aI0
aa(lp511
I2
aI0
aI0
aa(lp512
I2
aI0
aI0
aa(lp513
I2
aI0
aI0
aa(lp514
I3
aI0
aI0
aa(lp515
I4
aI0
aI0
aa(lp516
I2
aI0
aI0
aa(lp517
I2
aI0
aI0
aa(lp518
I2
aI0
aI0
aa(lp519
I5
aI0
aI0
aa(lp520
I2
aI0
aI0
aa(lp521
I2
aI0
aI0
aa(lp522
I2
aI0
aI0
aa(lp523
I4
aI0
aI0
aa(lp524
I2
aI0
aI0
aa(lp525
I2
aI0
aI0
aa(lp526
I2
aI0
aI0
aa(lp527
I4
aI0
aI0
aa(lp528
I2
aI0
aI0
aa(lp529
I2
aI0
aI0
aa(lp530
I2
aI0
aI0
aa(lp531
I2
aI0
aI0
aa(lp532
I2
aI0
aI0
aa(lp533
I2
aI0
aI0
aa(lp534
I2
aI0
aI0
aa(lp535
I2
aI0
aI0
aa(lp536
I2
aI0
aI0
aa(lp537
I2
aI0
aI0
aa(lp538
I2
aI0
aI0
aa(lp539
I2
aI0
aI0
aa(lp540
I5
aI0
aI0
aa(lp541
I5
aI0
aI0
aa(lp542
I3
aI0
aI0
aa(lp543
I2
aI0
aI0
aa(lp544
I2
aI0
aI0
aa(lp545
I2
aI0
aI0
aa(lp546
I2
aI0
aI0
aa(lp547
I2
aI0
aI0
aa(lp548
I3
aI0
aI0
aa(lp549
I2
aI0
aI0
aa(lp550
I2
aI0
aI0
aa(lp551
I2
aI0
aI0
aa(lp552
I2
aI0
aI0
aa(lp553
I5
aI0
aI0
aa(lp554
I4
aI0
aI0
aa(lp555
I3
aI0
aI0
aa(lp556
I2
aI0
aI0
aa(lp557
I2
aI0
aI0
aa(lp558
I3
aI0
aI0
aa(lp559
I2
aI0
aI0
aa(lp560
I4
aI0
aI0
aa(lp561
I6
aI0
aI0
aa(lp562
I3
aI0
aI0
aa(lp563
I3
aI0
aI0
aa(lp564
I4
aI0
aI0
aa(lp565
I3
aI0
aI0
aa(lp566
I4
aI0
aI0
aa(lp567
I4
aI0
aI0
aa(lp568
I5
aI0
aI0
aa(lp569
I5
aI0
aI0
aa(lp570
I2
aI0
aI0
aa(lp571
I3
aI0
aI0
aa(lp572
I2
aI0
aI0
aa(lp573
I4
aI0
aI0
aa(lp574
I3
aI0
aI0
aa(lp575
I2
aI0
aI0
aa(lp576
I2
aI0
aI0
aa(lp577
I2
aI0
aI0
aa(lp578
I2
aI0
aI0
aa(lp579
I2
aI0
aI0
aa(lp580
I2
aI0
aI0
aa(lp581
I3
aI0
aI0
aa(lp582
I2
aI0
aI0
aa(lp583
I2
aI0
aI0
aa(lp584
I6
aI0
aI0
aa(lp585
I2
aI0
aI0
aa(lp586
I2
aI0
aI0
aa(lp587
I5
aI0
aI0
aa(lp588
I2
aI0
aI0
aa(lp589
I2
aI0
aI0
aa(lp590
I2
aI0
aI0
aa(lp591
I2
aI0
aI0
aa(lp592
I2
aI0
aI0
aa(lp593
I2
aI0
aI0
aa(lp594
I2
aI0
aI0
aa(lp595
I2
aI0
aI0
aa(lp596
I2
aI0
aI0
aa(lp597
I4
aI0
aI0
aa(lp598
I2
aI0
aI0
aa(lp599
I2
aI0
aI0
aa(lp600
I2
aI0
aI0
aa(lp601
I2
aI0
aI0
aa(lp602
I2
aI0
aI0
aa(lp603
I2
aI0
aI0
aa(lp604
I3
aI0
aI0
aa(lp605
I2
aI0
aI0
aa(lp606
I2
aI0
aI0
aa(lp607
I2
aI0
aI0
aa(lp608
I7
aI0
aI0
aa(lp609
I7
aI0
aI0
aa(lp610
I2
aI0
aI0
aa(lp611
I4
aI0
aI0
aa(lp612
I2
aI0
aI0
aa(lp613
I5
aI0
aI0
aa(lp614
I3
aI0
aI0
aa(lp615
I3
aI0
aI0
aa(lp616
I2
aI0
aI0
aa(lp617
I2
aI0
aI0
aa(lp618
I2
aI0
aI0
aa(lp619
I3
aI0
aI0
aa(lp620
I2
aI0
aI0
aa(lp621
I4
aI0
aI0
aa(lp622
I3
aI0
aI0
aa(lp623
I3
aI0
aI0
aa(lp624
I4
aI0
aI0
aa(lp625
I2
aI0
aI0
aa(lp626
I2
aI0
aI0
aa(lp627
I2
aI0
aI0
aa(lp628
I2
aI0
aI0
aa(lp629
I3
aI0
aI0
aa(lp630
I3
aI0
aI0
aa(lp631
I2
aI0
aI0
aa(lp632
I2
aI0
aI0
aa(lp633
I3
aI0
aI0
aa(lp634
I2
aI0
aI0
aa(lp635
I5
aI0
aI0
aa.