(lp1
(lp2
I2
aI0
aI0
aa(lp3
I17
aI0
aI0
aa(lp4
I2
aI0
aI0
aa(lp5
I3
aI0
aI0
aa(lp6
I2
aI0
aI0
aa(lp7
I2
aI0
aI0
aa(lp8
I3
aI0
aI0
aa(lp9
I2
aI0
aI0
aa(lp10
I2
aI0
aI0
aa(lp11
I3
aI0
aI0
aa(lp12
I8
aI0
aI0
aa(lp13
I3
aI0
aI0
aa(lp14
I3
aI0
aI0
aa(lp15
I2
aI0
aI0
aa(lp16
I2
aI0
aI0
aa(lp17
I2
aI0
aI0
aa(lp18
I2
aI0
aI0
aa(lp19
I3
aI0
aI0
aa(lp20
I2
aI0
aI0
aa(lp21
I3
aI0
aI0
aa(lp22
I3
aI0
aI0
aa(lp23
I3
aI0
aI0
aa(lp24
I2
aI0
aI0
aa(lp25
I3
aI0
aI0
aa(lp26
I4
aI0
aI0
aa(lp27
I2
aI0
aI0
aa(lp28
I22
aI0
aI0
aa(lp29
I2
aI0
aI0
aa(lp30
I2
aI0
aI0
aa(lp31
I2
aI0
aI0
aa(lp32
I2
aI0
aI0
aa(lp33
I2
aI0
aI0
aa(lp34
I2
aI0
aI0
aa(lp35
I2
aI0
aI0
aa(lp36
I5
aI0
aI0
aa(lp37
I2
aI0
aI0
aa(lp38
I3
aI0
aI0
aa(lp39
I2
aI0
aI0
aa(lp40
I2
aI0
aI0
aa(lp41
I4
aI0
aI0
aa(lp42
I2
aI0
aI0
aa(lp43
I2
aI0
aI0
aa(lp44
I4
aI0
aI0
aa(lp45
I2
aI0
aI0
aa(lp46
I2
aI0
aI0
aa(lp47
I2
aI0
aI0
aa(lp48
I2
aI0
aI0
aa(lp49
I2
aI0
aI0
aa(lp50
I2
aI0
aI0
aa(lp51
I3
aI0
aI0
aa(lp52
I2
aI0
aI0
aa(lp53
I2
aI0
aI0
aa(lp54
I2
aI0
aI0
aa(lp55
I2
aI0
aI0
aa(lp56
I3
aI0
aI0
aa(lp57
I3
aI0
aI0
aa(lp58
I2
aI0
aI0
aa(lp59
I12
aI0
aI0
aa(lp60
I2
aI0
aI0
aa(lp61
I2
aI0
aI0
aa(lp62
I2
aI0
aI0
aa(lp63
I2
aI0
aI0
aa(lp64
I2
aI0
aI0
aa(lp65
I3
aI0
aI0
aa(lp66
I3
aI0
aI0
aa(lp67
I4
aI0
aI0
aa(lp68
I5
aI0
aI0
aa(lp69
I10
aI0
aI0
aa(lp70
I2
aI0
aI0
aa(lp71
I2
aI0
aI0
aa(lp72
I2
aI0
aI0
aa(lp73
I2
aI0
aI0
aa(lp74
I2
aI0
aI0
aa(lp75
I2
aI0
aI0
aa(lp76
I2
aI0
aI0
aa(lp77
I4
aI0
aI0
aa(lp78
I3
aI0
aI0
aa(lp79
I2
aI0
aI0
aa(lp80
I2
aI0
aI0
aa(lp81
I5
aI0
aI0
aa(lp82
I2
aI0
aI0
aa(lp83
I2
aI0
aI0
aa(lp84
I3
aI0
aI0
aa(lp85
I4
aI0
aI0
aa(lp86
I2
aI0
aI0
aa(lp87
I6
aI0
aI0
aa(lp88
I2
aI0
aI0
aa(lp89
I2
aI0
aI0
aa(lp90
I4
aI0
aI0
aa(lp91
I4
aI0
aI0
aa(lp92
I2
aI0
aI0
aa(lp93
I7
aI0
aI0
aa(lp94
I2
aI0
aI0
aa(lp95
I3
aI0
aI0
aa(lp96
I3
aI0
aI0
aa(lp97
I4
aI0
aI0
aa(lp98
I5
aI0
aI0
aa(lp99
I2
aI0
aI0
aa(lp100
I3
aI0
aI0
aa(lp101
I2
aI0
aI0
aa(lp102
I2
aI0
aI0
aa(lp103
I3
aI0
aI0
aa(lp104
I2
aI0
aI0
aa(lp105
I2
aI0
aI0
aa(lp106
I3
aI0
aI0
aa(lp107
I3
aI0
aI0
aa(lp108
I3
aI0
aI0
aa(lp109
I2
aI0
aI0
aa(lp110
I4
aI0
aI0
aa(lp111
I2
aI0
aI0
aa(lp112
I3
aI0
aI0
aa(lp113
I4
aI0
aI0
aa(lp114
I7
aI0
aI0
aa(lp115
I3
aI0
aI0
aa(lp116
I2
aI0
aI0
aa(lp117
I2
aI0
aI0
aa(lp118
I2
aI0
aI0
aa(lp119
I3
aI0
aI0
aa(lp120
I3
aI0
aI0
aa(lp121
I2
aI0
aI0
aa(lp122
I3
aI0
aI0
aa(lp123
I2
aI0
aI0
aa(lp124
I2
aI0
aI0
aa(lp125
I2
aI0
aI0
aa(lp126
I2
aI0
aI0
aa(lp127
I3
aI0
aI0
aa(lp128
I2
aI0
aI0
aa(lp129
I2
aI0
aI0
aa(lp130
I2
aI0
aI0
aa(lp131
I2
aI0
aI0
aa(lp132
I2
aI0
aI0
aa(lp133
I3
aI0
aI0
aa(lp134
I2
aI0
aI0
aa(lp135
I2
aI0
aI0
aa(lp136
I2
aI0
aI0
aa(lp137
I2
aI0
aI0
aa(lp138
I2
aI0
aI0
aa(lp139
I3
aI0
aI0
aa(lp140
I4
aI0
aI0
aa(lp141
I2
aI0
aI0
aa(lp142
I2
aI0
aI0
aa(lp143
I3
aI0
aI0
aa(lp144
I2
aI0
aI0
aa(lp145
I2
aI0
aI0
aa(lp146
I4
aI0
aI0
aa(lp147
I2
aI0
aI0
aa(lp148
I2
aI0
aI0
aa(lp149
I5
aI0
aI0
aa(lp150
I2
aI0
aI0
aa(lp151
I6
aI0
aI0
aa(lp152
I2
aI0
aI0
aa(lp153
I2
aI0
aI0
aa(lp154
I5
aI0
aI0
aa(lp155
I2
aI0
aI0
aa(lp156
I2
aI0
aI0
aa(lp157
I2
aI0
aI0
aa(lp158
I2
aI0
aI0
aa(lp159
I2
aI0
aI0
aa(lp160
I2
aI0
aI0
aa(lp161
I3
aI0
aI0
aa(lp162
I2
aI0
aI0
aa(lp163
I2
aI0
aI0
aa(lp164
I3
aI0
aI0
aa(lp165
I5
aI0
aI0
aa(lp166
I2
aI0
aI0
aa(lp167
I2
aI0
aI0
aa(lp168
I3
aI0
aI0
aa(lp169
I3
aI0
aI0
aa(lp170
I2
aI0
aI0
aa(lp171
I3
aI0
aI0
aa(lp172
I6
aI0
aI0
aa(lp173
I2
aI0
aI0
aa(lp174
I2
aI0
aI0
aa(lp175
I2
aI0
aI0
aa(lp176
I6
aI0
aI0
aa(lp177
I2
aI0
aI0
aa(lp178
I26
aI0
aI0
aa(lp179
I2
aI0
aI0
aa(lp180
I6
aI0
aI0
aa(lp181
I3
aI0
aI0
aa(lp182
I2
aI0
aI0
aa(lp183
I2
aI0
aI0
aa(lp184
I2
aI0
aI0
aa(lp185
I2
aI0
aI0
aa(lp186
I2
aI0
aI0
aa(lp187
I2
aI0
aI0
aa(lp188
I2
aI0
aI0
aa(lp189
I2
aI0
aI0
aa(lp190
I3
aI0
aI0
aa(lp191
I3
aI0
aI0
aa(lp192
I2
aI0
aI0
aa(lp193
I2
aI0
aI0
aa(lp194
I2
aI0
aI0
aa(lp195
I3
aI0
aI0
aa(lp196
I4
aI0
aI0
aa(lp197
I2
aI0
aI0
aa(lp198
I12
aI0
aI0
aa(lp199
I2
aI0
aI0
aa(lp200
I2
aI0
aI0
aa(lp201
I3
aI0
aI0
aa(lp202
I2
aI0
aI0
aa(lp203
I2
aI0
aI0
aa(lp204
I2
aI0
aI0
aa(lp205
I2
aI0
aI0
aa(lp206
I2
aI0
aI0
aa(lp207
I7
aI0
aI0
aa(lp208
I2
aI0
aI0
aa(lp209
I2
aI0
aI0
aa(lp210
I2
aI0
aI0
aa(lp211
I3
aI0
aI0
aa(lp212
I6
aI0
aI0
aa(lp213
I2
aI0
aI0
aa(lp214
I11
aI0
aI0
aa(lp215
I2
aI0
aI0
aa(lp216
I2
aI0
aI0
aa(lp217
I3
aI0
aI0
aa(lp218
I2
aI0
aI0
aa(lp219
I2
aI0
aI0
aa(lp220
I2
aI0
aI0
aa(lp221
I2
aI0
aI0
aa(lp222
I2
aI0
aI0
aa(lp223
I3
aI0
aI0
aa(lp224
I2
aI0
aI0
aa(lp225
I2
aI0
aI0
aa(lp226
I5
aI0
aI0
aa(lp227
I2
aI0
aI0
aa(lp228
I3
aI0
aI0
aa(lp229
I3
aI0
aI0
aa(lp230
I2
aI0
aI0
aa(lp231
I2
aI0
aI0
aa(lp232
I3
aI0
aI0
aa(lp233
I2
aI0
aI0
aa(lp234
I2
aI0
aI0
aa(lp235
I2
aI0
aI0
aa(lp236
I2
aI0
aI0
aa(lp237
I2
aI0
aI0
aa(lp238
I2
aI0
aI0
aa(lp239
I3
aI0
aI0
aa(lp240
I6
aI0
aI0
aa(lp241
I2
aI0
aI0
aa(lp242
I5
aI0
aI0
aa(lp243
I2
aI0
aI0
aa(lp244
I2
aI0
aI0
aa(lp245
I3
aI0
aI0
aa(lp246
I2
aI0
aI0
aa(lp247
I2
aI0
aI0
aa(lp248
I2
aI0
aI0
aa(lp249
I5
aI0
aI0
aa(lp250
I8
aI0
aI0
aa(lp251
I2
aI0
aI0
aa(lp252
I4
aI0
aI0
aa(lp253
I2
aI0
aI0
aa(lp254
I2
aI0
aI0
aa(lp255
I2
aI0
aI0
aa(lp256
I2
aI0
aI0
aa(lp257
I2
aI0
aI0
aa(lp258
I2
aI0
aI0
aa(lp259
I6
aI0
aI0
aa(lp260
I2
aI0
aI0
aa(lp261
I2
aI0
aI0
aa(lp262
I2
aI0
aI0
aa(lp263
I3
aI0
aI0
aa(lp264
I2
aI0
aI0
aa(lp265
I3
aI0
aI0
aa(lp266
I2
aI0
aI0
aa(lp267
I4
aI0
aI0
aa(lp268
I5
aI0
aI0
aa(lp269
I3
aI0
aI0
aa(lp270
I3
aI0
aI0
aa(lp271
I2
aI0
aI0
aa(lp272
I2
aI0
aI0
aa(lp273
I2
aI0
aI0
aa(lp274
I2
aI0
aI0
aa(lp275
I2
aI0
aI0
aa(lp276
I2
aI0
aI0
aa(lp277
I2
aI0
aI0
aa(lp278
I2
aI0
aI0
aa(lp279
I3
aI0
aI0
aa(lp280
I3
aI0
aI0
aa(lp281
I2
aI0
aI0
aa(lp282
I4
aI0
aI0
aa(lp283
I2
aI0
aI0
aa(lp284
I2
aI0
aI0
aa(lp285
I7
aI0
aI0
aa(lp286
I2
aI0
aI0
aa(lp287
I2
aI0
aI0
aa(lp288
I3
aI0
aI0
aa(lp289
I2
aI0
aI0
aa(lp290
I3
aI0
aI0
aa(lp291
I4
aI0
aI0
aa(lp292
I2
aI0
aI0
aa(lp293
I3
aI0
aI0
aa(lp294
I3
aI0
aI0
aa(lp295
I4
aI0
aI0
aa(lp296
I3
aI0
aI0
aa(lp297
I2
aI0
aI0
aa(lp298
I2
aI0
aI0
aa(lp299
I2
aI0
aI0
aa(lp300
I2
aI0
aI0
aa(lp301
I6
aI0
aI0
aa(lp302
I2
aI0
aI0
aa(lp303
I3
aI0
aI0
aa(lp304
I2
aI0
aI0
aa(lp305
I6
aI0
aI0
aa(lp306
I5
aI0
aI0
aa(lp307
I7
aI0
aI0
aa(lp308
I3
aI0
aI0
aa(lp309
I3
aI0
aI0
aa(lp310
I2
aI0
aI0
aa(lp311
I2
aI0
aI0
aa(lp312
I2
aI0
aI0
aa(lp313
I2
aI0
aI0
aa(lp314
I3
aI0
aI0
aa(lp315
I2
aI0
aI0
aa(lp316
I5
aI0
aI0
aa(lp317
I2
aI0
aI0
aa(lp318
I4
aI0
aI0
aa(lp319
I2
aI0
aI0
aa(lp320
I5
aI0
aI0
aa(lp321
I3
aI0
aI0
aa(lp322
I2
aI0
aI0
aa(lp323
I2
aI0
aI0
aa(lp324
I3
aI0
aI0
aa(lp325
I2
aI0
aI0
aa(lp326
I4
aI0
aI0
aa(lp327
I2
aI0
aI0
aa(lp328
I2
aI0
aI0
aa(lp329
I6
aI0
aI0
aa(lp330
I2
aI0
aI0
aa(lp331
I4
aI0
aI0
aa(lp332
I4
aI0
aI0
aa(lp333
I3
aI0
aI0
aa(lp334
I2
aI0
aI0
aa(lp335
I2
aI0
aI0
aa(lp336
I2
aI0
aI0
aa(lp337
I3
aI0
aI0
aa(lp338
I3
aI0
aI0
aa(lp339
I2
aI0
aI0
aa(lp340
I2
aI0
aI0
aa(lp341
I2
aI0
aI0
aa(lp342
I2
aI0
aI0
aa(lp343
I2
aI0
aI0
aa(lp344
I2
aI0
aI0
aa(lp345
I2
aI0
aI0
aa(lp346
I2
aI0
aI0
aa(lp347
I2
aI0
aI0
aa(lp348
I3
aI0
aI0
aa(lp349
I19
aI0
aI0
aa(lp350
I3
aI0
aI0
aa(lp351
I2
aI0
aI0
aa(lp352
I2
aI0
aI0
aa(lp353
I2
aI0
aI0
aa(lp354
I3
aI0
aI0
aa(lp355
I2
aI0
aI0
aa(lp356
I4
aI0
aI0
aa(lp357
I3
aI0
aI0
aa(lp358
I2
aI0
aI0
aa(lp359
I3
aI0
aI0
aa(lp360
I2
aI0
aI0
aa(lp361
I2
aI0
aI0
aa(lp362
I2
aI0
aI0
aa(lp363
I6
aI0
aI0
aa(lp364
I3
aI0
aI0
aa(lp365
I2
aI0
aI0
aa(lp366
I2
aI0
aI0
aa(lp367
I3
aI0
aI0
aa(lp368
I6
aI0
aI0
aa(lp369
I5
aI0
aI0
aa(lp370
I2
aI0
aI0
aa(lp371
I4
aI0
aI0
aa(lp372
I2
aI0
aI0
aa(lp373
I3
aI0
aI0
aa(lp374
I6
aI0
aI0
aa(lp375
I2
aI0
aI0
aa(lp376
I4
aI0
aI0
aa(lp377
I3
aI0
aI0
aa(lp378
I2
aI0
aI0
aa(lp379
I2
aI0
aI0
aa(lp380
I2
aI0
aI0
aa(lp381
I2
aI0
aI0
aa(lp382
I2
aI0
aI0
aa(lp383
I2
aI0
aI0
aa(lp384
I5
aI0
aI0
aa(lp385
I4
aI0
aI0
aa(lp386
I5
aI0
aI0
aa(lp387
I3
aI0
aI0
aa(lp388
I2
aI0
aI0
aa(lp389
I2
aI0
aI0
aa(lp390
I3
aI0
aI0
aa(lp391
I2
aI0
aI0
aa(lp392
I2
aI0
aI0
aa(lp393
I2
aI0
aI0
aa(lp394
I2
aI0
aI0
aa(lp395
I3
aI0
aI0
aa(lp396
I2
aI0
aI0
aa(lp397
I2
aI0
aI0
aa(lp398
I2
aI0
aI0
aa(lp399
I2
aI0
aI0
aa(lp400
I2
aI0
aI0
aa(lp401
I2
aI0
aI0
aa(lp402
I3
aI0
aI0
aa(lp403
I2
aI0
aI0
aa(lp404
I3
aI0
aI0
aa(lp405
I2
aI0
aI0
aa(lp406
I4
aI0
aI0
aa(lp407
I2
aI0
aI0
aa(lp408
I2
aI0
aI0
aa(lp409
I2
aI0
aI0
aa(lp410
I3
aI0
aI0
aa(lp411
I2
aI0
aI0
aa(lp412
I2
aI0
aI0
aa(lp413
I3
aI0
aI0
aa(lp414
I2
aI0
aI0
aa(lp415
I3
aI0
aI0
aa(lp416
I2
aI0
aI0
aa(lp417
I2
aI0
aI0
aa(lp418
I2
aI0
aI0
aa(lp419
I2
aI0
aI0
aa(lp420
I2
aI0
aI0
aa(lp421
I2
aI0
aI0
aa(lp422
I2
aI0
aI0
aa(lp423
I5
aI0
aI0
aa(lp424
I3
aI0
aI0
aa(lp425
I2
aI0
aI0
aa(lp426
I4
aI0
aI0
aa(lp427
I3
aI0
aI0
aa(lp428
I2
aI0
aI0
aa(lp429
I2
aI0
aI0
aa(lp430
I2
aI0
aI0
aa(lp431
I2
aI0
aI0
aa(lp432
I2
aI0
aI0
aa(lp433
I5
aI0
aI0
aa(lp434
I6
aI0
aI0
aa(lp435
I3
aI0
aI0
aa(lp436
I3
aI0
aI0
aa(lp437
I2
aI0
aI0
aa(lp438
I3
aI0
aI0
aa(lp439
I2
aI0
aI0
aa(lp440
I2
aI0
aI0
aa(lp441
I2
aI0
aI0
aa(lp442
I2
aI0
aI0
aa(lp443
I2
aI0
aI0
aa(lp444
I3
aI0
aI0
aa(lp445
I2
aI0
aI0
aa(lp446
I2
aI0
aI0
aa(lp447
I3
aI0
aI0
aa(lp448
I3
aI0
aI0
aa(lp449
I2
aI0
aI0
aa(lp450
I4
aI0
aI0
aa(lp451
I2
aI0
aI0
aa(lp452
I2
aI0
aI0
aa(lp453
I3
aI0
aI0
aa(lp454
I2
aI0
aI0
aa(lp455
I5
aI0
aI0
aa(lp456
I4
aI0
aI0
aa(lp457
I2
aI0
aI0
aa(lp458
I3
aI0
aI0
aa(lp459
I3
aI0
aI0
aa(lp460
I2
aI0
aI0
aa(lp461
I3
aI0
aI0
aa(lp462
I2
aI0
aI0
aa(lp463
I3
aI0
aI0
aa(lp464
I2
aI0
aI0
aa(lp465
I2
aI0
aI0
aa(lp466
I2
aI0
aI0
aa(lp467
I2
aI0
aI0
aa(lp468
I2
aI0
aI0
aa(lp469
I2
aI0
aI0
aa(lp470
I2
aI0
aI0
aa(lp471
I2
aI0
aI0
aa(lp472
I2
aI0
aI0
aa(lp473
I3
aI0
aI0
aa(lp474
I4
aI0
aI0
aa(lp475
I2
aI0
aI0
aa(lp476
I3
aI0
aI0
aa(lp477
I2
aI0
aI0
aa(lp478
I2
aI0
aI0
aa(lp479
I5
aI0
aI0
aa(lp480
I5
aI0
aI0
aa(lp481
I4
aI0
aI0
aa(lp482
I2
aI0
aI0
aa(lp483
I4
aI0
aI0
aa(lp484
I3
aI0
aI0
aa(lp485
I2
aI0
aI0
aa(lp486
I8
aI0
aI0
aa(lp487
I14
aI0
aI0
aa(lp488
I2
aI0
aI0
aa(lp489
I2
aI0
aI0
aa(lp490
I2
aI0
aI0
aa(lp491
I2
aI0
aI0
aa(lp492
I2
aI0
aI0
aa(lp493
I3
aI0
aI0
aa(lp494
I3
aI0
aI0
aa(lp495
I2
aI0
aI0
aa(lp496
I3
aI0
aI0
aa(lp497
I2
aI0
aI0
aa(lp498
I2
aI0
aI0
aa(lp499
I2
aI0
aI0
aa(lp500
I2
aI0
aI0
aa(lp501
I2
aI0
aI0
aa(lp502
I2
aI0
aI0
aa(lp503
I2
aI0
aI0
aa(lp504
I2
aI0
aI0
aa(lp505
I3
aI0
aI0
aa(lp506
I2
aI0
aI0
aa(lp507
I3
aI0
aI0
aa(lp508
I5
aI0
aI0
aa(lp509
I2
aI0
aI0
aa(lp510
I4
aI0
aI0
aa(lp511
I5
aI0
aI0
aa(lp512
I4
aI0
aI0
aa(lp513
I2
aI0
aI0
aa(lp514
I3
aI0
aI0
aa(lp515
I2
aI0
aI0
aa(lp516
I2
aI0
aI0
aa(lp517
I3
aI0
aI0
aa(lp518
I3
aI0
aI0
aa(lp519
I6
aI0
aI0
aa(lp520
I3
aI0
aI0
aa(lp521
I2
aI0
aI0
aa(lp522
I2
aI0
aI0
aa(lp523
I2
aI0
aI0
aa(lp524
I2
aI0
aI0
aa(lp525
I2
aI0
aI0
aa(lp526
I2
aI0
aI0
aa(lp527
I2
aI0
aI0
aa(lp528
I2
aI0
aI0
aa(lp529
I2
aI0
aI0
aa(lp530
I2
aI0
aI0
aa(lp531
I4
aI0
aI0
aa(lp532
I2
aI0
aI0
aa(lp533
I2
aI0
aI0
aa(lp534
I2
aI0
aI0
aa(lp535
I3
aI0
aI0
aa(lp536
I2
aI0
aI0
aa(lp537
I15
aI0
aI0
aa(lp538
I2
aI0
aI0
aa(lp539
I3
aI0
aI0
aa(lp540
I2
aI0
aI0
aa(lp541
I2
aI0
aI0
aa(lp542
I3
aI0
aI0
aa(lp543
I2
aI0
aI0
aa(lp544
I2
aI0
aI0
aa(lp545
I2
aI0
aI0
aa(lp546
I3
aI0
aI0
aa(lp547
I3
aI0
aI0
aa(lp548
I2
aI0
aI0
aa(lp549
I3
aI0
aI0
aa(lp550
I5
aI0
aI0
aa(lp551
I2
aI0
aI0
aa(lp552
I4
aI0
aI0
aa(lp553
I3
aI0
aI0
aa(lp554
I2
aI0
aI0
aa(lp555
I4
aI0
aI0
aa(lp556
I4
aI0
aI0
aa(lp557
I2
aI0
aI0
aa(lp558
I2
aI0
aI0
aa(lp559
I2
aI0
aI0
aa(lp560
I11
aI0
aI0
aa(lp561
I2
aI0
aI0
aa(lp562
I5
aI0
aI0
aa(lp563
I4
aI0
aI0
aa(lp564
I4
aI0
aI0
aa(lp565
I2
aI0
aI0
aa(lp566
I2
aI0
aI0
aa(lp567
I4
aI0
aI0
aa(lp568
I2
aI0
aI0
aa(lp569
I4
aI0
aI0
aa(lp570
I9
aI0
aI0
aa(lp571
I7
aI0
aI0
aa(lp572
I2
aI0
aI0
aa(lp573
I2
aI0
aI0
aa(lp574
I2
aI0
aI0
aa(lp575
I2
aI0
aI0
aa(lp576
I8
aI0
aI0
aa(lp577
I2
aI0
aI0
aa(lp578
I2
aI0
aI0
aa(lp579
I2
aI0
aI0
aa(lp580
I3
aI0
aI0
aa(lp581
I2
aI0
aI0
aa(lp582
I12
aI0
aI0
aa(lp583
I13
aI0
aI0
aa(lp584
I2
aI0
aI0
aa(lp585
I2
aI0
aI0
aa(lp586
I3
aI0
aI0
aa(lp587
I2
aI0
aI0
aa(lp588
I2
aI0
aI0
aa(lp589
I3
aI0
aI0
aa(lp590
I3
aI0
aI0
aa(lp591
I4
aI0
aI0
aa(lp592
I2
aI0
aI0
aa(lp593
I2
aI0
aI0
aa(lp594
I2
aI0
aI0
aa(lp595
I2
aI0
aI0
aa(lp596
I2
aI0
aI0
aa(lp597
I3
aI0
aI0
aa(lp598
I3
aI0
aI0
aa(lp599
I2
aI0
aI0
aa(lp600
I7
aI0
aI0
aa(lp601
I5
aI0
aI0
aa(lp602
I2
aI0
aI0
aa(lp603
I2
aI0
aI0
aa(lp604
I3
aI0
aI0
aa(lp605
I2
aI0
aI0
aa(lp606
I3
aI0
aI0
aa(lp607
I2
aI0
aI0
aa(lp608
I2
aI0
aI0
aa(lp609
I2
aI0
aI0
aa(lp610
I2
aI0
aI0
aa(lp611
I2
aI0
aI0
aa(lp612
I8
aI0
aI0
aa(lp613
I2
aI0
aI0
aa(lp614
I6
aI0
aI0
aa(lp615
I3
aI0
aI0
aa(lp616
I3
aI0
aI0
aa(lp617
I2
aI0
aI0
aa(lp618
I2
aI0
aI0
aa(lp619
I2
aI0
aI0
aa(lp620
I2
aI0
aI0
aa(lp621
I2
aI0
aI0
aa(lp622
I3
aI0
aI0
aa(lp623
I2
aI0
aI0
aa(lp624
I2
aI0
aI0
aa(lp625
I2
aI0
aI0
aa(lp626
I2
aI0
aI0
aa(lp627
I3
aI0
aI0
aa(lp628
I2
aI0
aI0
aa(lp629
I2
aI0
aI0
aa(lp630
I14
aI0
aI0
aa(lp631
I4
aI0
aI0
aa(lp632
I2
aI0
aI0
aa(lp633
I3
aI0
aI0
aa(lp634
I2
aI0
aI0
aa(lp635
I2
aI0
aI0
aa(lp636
I4
aI0
aI0
aa(lp637
I5
aI0
aI0
aa(lp638
I2
aI0
aI0
aa(lp639
I2
aI0
aI0
aa(lp640
I3
aI0
aI0
aa(lp641
I4
aI0
aI0
aa(lp642
I2
aI0
aI0
aa(lp643
I23
aI0
aI0
aa(lp644
I4
aI0
aI0
aa(lp645
I2
aI0
aI0
aa(lp646
I3
aI0
aI0
aa(lp647
I3
aI0
aI0
aa(lp648
I2
aI0
aI0
aa(lp649
I11
aI0
aI0
aa(lp650
I11
aI0
aI0
aa(lp651
I2
aI0
aI0
aa(lp652
I2
aI0
aI0
aa(lp653
I4
aI0
aI0
aa(lp654
I4
aI0
aI0
aa(lp655
I2
aI0
aI0
aa(lp656
I2
aI0
aI0
aa(lp657
I2
aI0
aI0
aa(lp658
I2
aI0
aI0
aa(lp659
I2
aI0
aI0
aa(lp660
I3
aI0
aI0
aa(lp661
I2
aI0
aI0
aa(lp662
I2
aI0
aI0
aa(lp663
I2
aI0
aI0
aa(lp664
I3
aI0
aI0
aa(lp665
I3
aI0
aI0
aa(lp666
I2
aI0
aI0
aa(lp667
I2
aI0
aI0
aa(lp668
I2
aI0
aI0
aa(lp669
I6
aI0
aI0
aa(lp670
I3
aI0
aI0
aa(lp671
I2
aI0
aI0
aa(lp672
I3
aI0
aI0
aa(lp673
I2
aI0
aI0
aa(lp674
I2
aI0
aI0
aa(lp675
I2
aI0
aI0
aa(lp676
I2
aI0
aI0
aa(lp677
I2
aI0
aI0
aa(lp678
I3
aI0
aI0
aa(lp679
I2
aI0
aI0
aa(lp680
I2
aI0
aI0
aa(lp681
I2
aI0
aI0
aa(lp682
I4
aI0
aI0
aa(lp683
I2
aI0
aI0
aa(lp684
I2
aI0
aI0
aa(lp685
I2
aI0
aI0
aa(lp686
I2
aI0
aI0
aa(lp687
I2
aI0
aI0
aa(lp688
I2
aI0
aI0
aa(lp689
I2
aI0
aI0
aa(lp690
I2
aI0
aI0
aa(lp691
I3
aI0
aI0
aa(lp692
I2
aI0
aI0
aa(lp693
I2
aI0
aI0
aa(lp694
I2
aI0
aI0
aa(lp695
I4
aI0
aI0
aa(lp696
I2
aI0
aI0
aa(lp697
I2
aI0
aI0
aa(lp698
I2
aI0
aI0
aa(lp699
I3
aI0
aI0
aa(lp700
I5
aI0
aI0
aa(lp701
I2
aI0
aI0
aa(lp702
I2
aI0
aI0
aa(lp703
I2
aI0
aI0
aa(lp704
I2
aI0
aI0
aa(lp705
I3
aI0
aI0
aa(lp706
I5
aI0
aI0
aa(lp707
I2
aI0
aI0
aa(lp708
I3
aI0
aI0
aa(lp709
I2
aI0
aI0
aa(lp710
I3
aI0
aI0
aa(lp711
I2
aI0
aI0
aa(lp712
I2
aI0
aI0
aa(lp713
I2
aI0
aI0
aa(lp714
I2
aI0
aI0
aa(lp715
I3
aI0
aI0
aa(lp716
I10
aI0
aI0
aa(lp717
I2
aI0
aI0
aa(lp718
I3
aI0
aI0
aa(lp719
I2
aI0
aI0
aa(lp720
I2
aI0
aI0
aa(lp721
I2
aI0
aI0
aa(lp722
I2
aI0
aI0
aa(lp723
I6
aI0
aI0
aa(lp724
I4
aI0
aI0
aa(lp725
I2
aI0
aI0
aa(lp726
I2
aI0
aI0
aa(lp727
I2
aI0
aI0
aa(lp728
I2
aI0
aI0
aa(lp729
I6
aI0
aI0
aa(lp730
I2
aI0
aI0
aa(lp731
I2
aI0
aI0
aa(lp732
I4
aI0
aI0
aa(lp733
I2
aI0
aI0
aa(lp734
I3
aI0
aI0
aa(lp735
I2
aI0
aI0
aa(lp736
I11
aI0
aI0
aa(lp737
I2
aI0
aI0
aa(lp738
I3
aI0
aI0
aa(lp739
I2
aI0
aI0
aa(lp740
I2
aI0
aI0
aa(lp741
I6
aI0
aI0
aa(lp742
I2
aI0
aI0
aa(lp743
I2
aI0
aI0
aa(lp744
I3
aI0
aI0
aa(lp745
I4
aI0
aI0
aa(lp746
I2
aI0
aI0
aa(lp747
I2
aI0
aI0
aa(lp748
I3
aI0
aI0
aa(lp749
I2
aI0
aI0
aa(lp750
I2
aI0
aI0
aa(lp751
I2
aI0
aI0
aa(lp752
I3
aI0
aI0
aa(lp753
I3
aI0
aI0
aa(lp754
I3
aI0
aI0
aa(lp755
I2
aI0
aI0
aa(lp756
I2
aI0
aI0
aa(lp757
I2
aI0
aI0
aa(lp758
I2
aI0
aI0
aa(lp759
I2
aI0
aI0
aa(lp760
I2
aI0
aI0
aa(lp761
I2
aI0
aI0
aa(lp762
I2
aI0
aI0
aa(lp763
I6
aI0
aI0
aa(lp764
I3
aI0
aI0
aa(lp765
I2
aI0
aI0
aa(lp766
I2
aI0
aI0
aa(lp767
I2
aI0
aI0
aa(lp768
I2
aI0
aI0
aa(lp769
I2
aI0
aI0
aa(lp770
I2
aI0
aI0
aa(lp771
I2
aI0
aI0
aa(lp772
I17
aI0
aI0
aa(lp773
I2
aI0
aI0
aa(lp774
I2
aI0
aI0
aa(lp775
I2
aI0
aI0
aa(lp776
I2
aI0
aI0
aa(lp777
I2
aI0
aI0
aa(lp778
I4
aI0
aI0
aa(lp779
I2
aI0
aI0
aa(lp780
I3
aI0
aI0
aa(lp781
I3
aI0
aI0
aa(lp782
I4
aI0
aI0
aa(lp783
I2
aI0
aI0
aa(lp784
I3
aI0
aI0
aa(lp785
I2
aI0
aI0
aa(lp786
I2
aI0
aI0
aa(lp787
I2
aI0
aI0
aa(lp788
I2
aI0
aI0
aa(lp789
I2
aI0
aI0
aa(lp790
I2
aI0
aI0
aa(lp791
I4
aI0
aI0
aa(lp792
I2
aI0
aI0
aa(lp793
I3
aI0
aI0
aa(lp794
I2
aI0
aI0
aa(lp795
I3
aI0
aI0
aa(lp796
I4
aI0
aI0
aa(lp797
I4
aI0
aI0
aa(lp798
I2
aI0
aI0
aa(lp799
I2
aI0
aI0
aa(lp800
I2
aI0
aI0
aa(lp801
I2
aI0
aI0
aa(lp802
I3
aI0
aI0
aa(lp803
I3
aI0
aI0
aa(lp804
I2
aI0
aI0
aa(lp805
I5
aI0
aI0
aa(lp806
I2
aI0
aI0
aa(lp807
I2
aI0
aI0
aa(lp808
I2
aI0
aI0
aa(lp809
I3
aI0
aI0
aa(lp810
I2
aI0
aI0
aa(lp811
I3
aI0
aI0
aa(lp812
I2
aI0
aI0
aa(lp813
I3
aI0
aI0
aa(lp814
I2
aI0
aI0
aa(lp815
I2
aI0
aI0
aa(lp816
I2
aI0
aI0
aa(lp817
I3
aI0
aI0
aa(lp818
I2
aI0
aI0
aa(lp819
I2
aI0
aI0
aa(lp820
I2
aI0
aI0
aa(lp821
I2
aI0
aI0
aa(lp822
I6
aI0
aI0
aa(lp823
I2
aI0
aI0
aa(lp824
I2
aI0
aI0
aa(lp825
I2
aI0
aI0
aa(lp826
I2
aI0
aI0
aa(lp827
I2
aI0
aI0
aa(lp828
I2
aI0
aI0
aa(lp829
I2
aI0
aI0
aa(lp830
I2
aI0
aI0
aa(lp831
I2
aI0
aI0
aa(lp832
I2
aI0
aI0
aa(lp833
I5
aI0
aI0
aa(lp834
I2
aI0
aI0
aa(lp835
I3
aI0
aI0
aa(lp836
I3
aI0
aI0
aa(lp837
I2
aI0
aI0
aa(lp838
I2
aI0
aI0
aa(lp839
I3
aI0
aI0
aa(lp840
I5
aI0
aI0
aa(lp841
I2
aI0
aI0
aa(lp842
I2
aI0
aI0
aa(lp843
I2
aI0
aI0
aa(lp844
I2
aI0
aI0
aa(lp845
I5
aI0
aI0
aa(lp846
I2
aI0
aI0
aa(lp847
I3
aI0
aI0
aa(lp848
I2
aI0
aI0
aa(lp849
I2
aI0
aI0
aa(lp850
I2
aI0
aI0
aa(lp851
I2
aI0
aI0
aa(lp852
I2
aI0
aI0
aa(lp853
I2
aI0
aI0
aa(lp854
I11
aI0
aI0
aa(lp855
I2
aI0
aI0
aa(lp856
I7
aI0
aI0
aa(lp857
I4
aI0
aI0
aa(lp858
I2
aI0
aI0
aa(lp859
I2
aI0
aI0
aa(lp860
I2
aI0
aI0
aa(lp861
I2
aI0
aI0
aa(lp862
I2
aI0
aI0
aa(lp863
I2
aI0
aI0
aa.