(lp1
(lp2
I3
aI0
aI0
aa(lp3
I3
aI0
aI0
aa(lp4
I2
aI0
aI0
aa(lp5
I2
aI0
aI0
aa(lp6
I2
aI0
aI0
aa(lp7
I2
aI0
aI0
aa(lp8
I2
aI0
aI0
aa(lp9
I2
aI0
aI0
aa(lp10
I2
aI0
aI0
aa(lp11
I5
aI0
aI0
aa(lp12
I2
aI0
aI0
aa(lp13
I2
aI0
aI0
aa(lp14
I3
aI0
aI0
aa(lp15
I3
aI0
aI0
aa(lp16
I5
aI0
aI0
aa(lp17
I2
aI0
aI0
aa(lp18
I3
aI0
aI0
aa(lp19
I2
aI0
aI0
aa(lp20
I2
aI0
aI0
aa(lp21
I9
aI0
aI0
aa(lp22
I4
aI0
aI0
aa(lp23
I2
aI0
aI0
aa(lp24
I3
aI0
aI0
aa(lp25
I3
aI0
aI0
aa(lp26
I2
aI0
aI0
aa(lp27
I2
aI0
aI0
aa(lp28
I2
aI0
aI0
aa(lp29
I2
aI0
aI0
aa(lp30
I2
aI0
aI0
aa(lp31
I3
aI0
aI0
aa(lp32
I3
aI0
aI0
aa(lp33
I2
aI0
aI0
aa(lp34
I2
aI0
aI0
aa(lp35
I2
aI0
aI0
aa(lp36
I3
aI0
aI0
aa(lp37
I2
aI0
aI0
aa(lp38
I2
aI0
aI0
aa(lp39
I2
aI0
aI0
aa(lp40
I2
aI0
aI0
aa(lp41
I2
aI0
aI0
aa(lp42
I3
aI0
aI0
aa(lp43
I2
aI0
aI0
aa(lp44
I3
aI0
aI0
aa(lp45
I2
aI0
aI0
aa(lp46
I2
aI0
aI0
aa(lp47
I5
aI0
aI0
aa(lp48
I2
aI0
aI0
aa(lp49
I2
aI0
aI0
aa(lp50
I2
aI0
aI0
aa(lp51
I3
aI0
aI0
aa(lp52
I2
aI0
aI0
aa(lp53
I3
aI0
aI0
aa(lp54
I2
aI0
aI0
aa(lp55
I4
aI0
aI0
aa(lp56
I2
aI0
aI0
aa(lp57
I2
aI0
aI0
aa(lp58
I2
aI0
aI0
aa(lp59
I2
aI0
aI0
aa(lp60
I2
aI0
aI0
aa(lp61
I2
aI0
aI0
aa(lp62
I2
aI0
aI0
aa(lp63
I2
aI0
aI0
aa(lp64
I2
aI0
aI0
aa(lp65
I4
aI0
aI0
aa(lp66
I3
aI0
aI0
aa(lp67
I3
aI0
aI0
aa(lp68
I2
aI0
aI0
aa(lp69
I3
aI0
aI0
aa.