(lp1
(lp2
I2
aI0
aI0
aa(lp3
I2
aI0
aI0
aa(lp4
I2
aI0
aI0
aa(lp5
I2
aI0
aI0
aa(lp6
I2
aI0
aI0
aa(lp7
I2
aI0
aI0
aa(lp8
I11
aI0
aI0
aa(lp9
I4
aI0
aI0
aa(lp10
I10
aI0
aI0
aa(lp11
I2
aI0
aI0
aa(lp12
I2
aI0
aI0
aa(lp13
I2
aI0
aI0
aa(lp14
I2
aI0
aI0
aa(lp15
I2
aI0
aI0
aa(lp16
I2
aI0
aI0
aa(lp17
I3
aI0
aI0
aa(lp18
I2
aI0
aI0
aa(lp19
I2
aI0
aI0
aa(lp20
I2
aI0
aI0
aa(lp21
I2
aI0
aI0
aa(lp22
I2
aI0
aI0
aa(lp23
I2
aI0
aI0
aa(lp24
I2
aI0
aI0
aa(lp25
I2
aI0
aI0
aa(lp26
I2
aI0
aI0
aa(lp27
I3
aI0
aI0
aa(lp28
I2
aI0
aI0
aa(lp29
I2
aI0
aI0
aa(lp30
I2
aI0
aI0
aa(lp31
I3
aI0
aI0
aa(lp32
I2
aI0
aI0
aa(lp33
I2
aI0
aI0
aa(lp34
I3
aI0
aI0
aa(lp35
I2
aI0
aI0
aa(lp36
I3
aI0
aI0
aa(lp37
I2
aI0
aI0
aa(lp38
I2
aI0
aI0
aa(lp39
I2
aI0
aI0
aa(lp40
I2
aI0
aI0
aa(lp41
I2
aI0
aI0
aa(lp42
I3
aI0
aI0
aa(lp43
I2
aI0
aI0
aa(lp44
I2
aI0
aI0
aa(lp45
I3
aI0
aI0
aa(lp46
I4
aI0
aI0
aa(lp47
I2
aI0
aI0
aa(lp48
I2
aI0
aI0
aa(lp49
I2
aI0
aI0
aa(lp50
I2
aI0
aI0
aa(lp51
I3
aI0
aI0
aa(lp52
I2
aI0
aI0
aa(lp53
I3
aI0
aI0
aa(lp54
I2
aI0
aI0
aa(lp55
I3
aI0
aI0
aa(lp56
I2
aI0
aI0
aa(lp57
I5
aI0
aI0
aa(lp58
I2
aI0
aI0
aa(lp59
I2
aI0
aI0
aa(lp60
I3
aI0
aI0
aa(lp61
I2
aI0
aI0
aa(lp62
I2
aI0
aI0
aa(lp63
I2
aI0
aI0
aa(lp64
I3
aI0
aI0
aa(lp65
I7
aI0
aI0
aa(lp66
I2
aI0
aI0
aa(lp67
I2
aI0
aI0
aa(lp68
I2
aI0
aI0
aa(lp69
I3
aI0
aI0
aa(lp70
I2
aI0
aI0
aa(lp71
I6
aI0
aI0
aa(lp72
I6
aI0
aI0
aa(lp73
I3
aI0
aI0
aa(lp74
I2
aI0
aI0
aa(lp75
I2
aI0
aI0
aa(lp76
I2
aI0
aI0
aa(lp77
I3
aI0
aI0
aa(lp78
I23
aI0
aI0
aa(lp79
I6
aI0
aI0
aa(lp80
I2
aI0
aI0
aa(lp81
I2
aI0
aI0
aa(lp82
I2
aI0
aI0
aa(lp83
I2
aI0
aI0
aa(lp84
I2
aI0
aI0
aa(lp85
I2
aI0
aI0
aa.