(lp1
(lp2
I2
aI0
aI0
aa(lp3
I4
aI0
aI0
aa(lp4
I2
aI0
aI0
aa(lp5
I3
aI0
aI0
aa(lp6
I6
aI0
aI0
aa(lp7
I2
aI0
aI0
aa(lp8
I9
aI0
aI0
aa(lp9
I3
aI0
aI0
aa(lp10
I2
aI0
aI0
aa(lp11
I2
aI0
aI0
aa(lp12
I2
aI0
aI0
aa(lp13
I4
aI0
aI0
aa(lp14
I3
aI0
aI0
aa(lp15
I3
aI0
aI0
aa(lp16
I2
aI0
aI0
aa(lp17
I2
aI0
aI0
aa(lp18
I4
aI0
aI0
aa(lp19
I5
aI0
aI0
aa(lp20
I3
aI0
aI0
aa(lp21
I2
aI0
aI0
aa(lp22
I2
aI0
aI0
aa(lp23
I4
aI0
aI0
aa(lp24
I3
aI0
aI0
aa(lp25
I2
aI0
aI0
aa(lp26
I3
aI0
aI0
aa(lp27
I2
aI0
aI0
aa(lp28
I12
aI0
aI0
aa(lp29
I2
aI0
aI0
aa(lp30
I2
aI0
aI0
aa(lp31
I6
aI0
aI0
aa(lp32
I7
aI0
aI0
aa(lp33
I2
aI0
aI0
aa(lp34
I6
aI0
aI0
aa(lp35
I2
aI0
aI0
aa(lp36
I4
aI0
aI0
aa(lp37
I3
aI0
aI0
aa(lp38
I6
aI0
aI0
aa(lp39
I2
aI0
aI0
aa(lp40
I2
aI0
aI0
aa(lp41
I2
aI0
aI0
aa(lp42
I2
aI0
aI0
aa(lp43
I2
aI0
aI0
aa(lp44
I2
aI0
aI0
aa(lp45
I4
aI0
aI0
aa(lp46
I2
aI0
aI0
aa(lp47
I2
aI0
aI0
aa(lp48
I2
aI0
aI0
aa(lp49
I3
aI0
aI0
aa(lp50
I2
aI0
aI0
aa(lp51
I2
aI0
aI0
aa(lp52
I2
aI0
aI0
aa(lp53
I4
aI0
aI0
aa(lp54
I4
aI0
aI0
aa(lp55
I2
aI0
aI0
aa(lp56
I2
aI0
aI0
aa(lp57
I2
aI0
aI0
aa(lp58
I2
aI0
aI0
aa(lp59
I9
aI0
aI0
aa(lp60
I3
aI0
aI0
aa(lp61
I2
aI0
aI0
aa(lp62
I2
aI0
aI0
aa(lp63
I5
aI0
aI0
aa(lp64
I9
aI0
aI0
aa(lp65
I2
aI0
aI0
aa(lp66
I6
aI0
aI0
aa(lp67
I2
aI0
aI0
aa(lp68
I9
aI0
aI0
aa(lp69
I5
aI0
aI0
aa(lp70
I2
aI0
aI0
aa(lp71
I2
aI0
aI0
aa(lp72
I2
aI0
aI0
aa(lp73
I2
aI0
aI0
aa(lp74
I2
aI0
aI0
aa(lp75
I2
aI0
aI0
aa(lp76
I3
aI0
aI0
aa(lp77
I2
aI0
aI0
aa(lp78
I2
aI0
aI0
aa(lp79
I2
aI0
aI0
aa(lp80
I2
aI0
aI0
aa(lp81
I3
aI0
aI0
aa(lp82
I4
aI0
aI0
aa(lp83
I2
aI0
aI0
aa(lp84
I5
aI0
aI0
aa(lp85
I4
aI0
aI0
aa(lp86
I2
aI0
aI0
aa(lp87
I2
aI0
aI0
aa(lp88
I3
aI0
aI0
aa(lp89
I3
aI0
aI0
aa(lp90
I2
aI0
aI0
aa(lp91
I2
aI0
aI0
aa(lp92
I5
aI0
aI0
aa(lp93
I2
aI0
aI0
aa(lp94
I3
aI0
aI0
aa(lp95
I2
aI0
aI0
aa(lp96
I2
aI0
aI0
aa(lp97
I2
aI0
aI0
aa(lp98
I3
aI0
aI0
aa(lp99
I5
aI0
aI0
aa(lp100
I4
aI0
aI0
aa(lp101
I2
aI0
aI0
aa(lp102
I2
aI0
aI0
aa(lp103
I5
aI0
aI0
aa(lp104
I2
aI0
aI0
aa(lp105
I2
aI0
aI0
aa(lp106
I4
aI0
aI0
aa(lp107
I2
aI0
aI0
aa(lp108
I2
aI0
aI0
aa(lp109
I4
aI0
aI0
aa(lp110
I2
aI0
aI0
aa(lp111
I5
aI0
aI0
aa(lp112
I5
aI0
aI0
aa(lp113
I3
aI0
aI0
aa(lp114
I4
aI0
aI0
aa(lp115
I3
aI0
aI0
aa(lp116
I4
aI0
aI0
aa(lp117
I2
aI0
aI0
aa(lp118
I2
aI0
aI0
aa(lp119
I2
aI0
aI0
aa(lp120
I2
aI0
aI0
aa(lp121
I2
aI0
aI0
aa(lp122
I2
aI0
aI0
aa(lp123
I3
aI0
aI0
aa(lp124
I3
aI0
aI0
aa(lp125
I2
aI0
aI0
aa(lp126
I2
aI0
aI0
aa(lp127
I2
aI0
aI0
aa(lp128
I4
aI0
aI0
aa(lp129
I4
aI0
aI0
aa(lp130
I2
aI0
aI0
aa(lp131
I3
aI0
aI0
aa(lp132
I2
aI0
aI0
aa(lp133
I2
aI0
aI0
aa(lp134
I4
aI0
aI0
aa(lp135
I3
aI0
aI0
aa(lp136
I2
aI0
aI0
aa(lp137
I3
aI0
aI0
aa(lp138
I2
aI0
aI0
aa(lp139
I2
aI0
aI0
aa(lp140
I2
aI0
aI0
aa(lp141
I3
aI0
aI0
aa(lp142
I3
aI0
aI0
aa(lp143
I2
aI0
aI0
aa(lp144
I2
aI0
aI0
aa(lp145
I2
aI0
aI0
aa(lp146
I2
aI0
aI0
aa(lp147
I4
aI0
aI0
aa(lp148
I3
aI0
aI0
aa(lp149
I2
aI0
aI0
aa(lp150
I2
aI0
aI0
aa(lp151
I3
aI0
aI0
aa(lp152
I2
aI0
aI0
aa(lp153
I3
aI0
aI0
aa(lp154
I3
aI0
aI0
aa(lp155
I2
aI0
aI0
aa(lp156
I2
aI0
aI0
aa(lp157
I2
aI0
aI0
aa(lp158
I2
aI0
aI0
aa(lp159
I16
aI0
aI0
aa(lp160
I2
aI0
aI0
aa(lp161
I2
aI0
aI0
aa(lp162
I9
aI0
aI0
aa(lp163
I2
aI0
aI0
aa(lp164
I2
aI0
aI0
aa(lp165
I2
aI0
aI0
aa(lp166
I2
aI0
aI0
aa(lp167
I2
aI0
aI0
aa(lp168
I6
aI0
aI0
aa(lp169
I2
aI0
aI0
aa(lp170
I5
aI0
aI0
aa(lp171
I2
aI0
aI0
aa(lp172
I5
aI0
aI0
aa(lp173
I3
aI0
aI0
aa(lp174
I2
aI0
aI0
aa(lp175
I2
aI0
aI0
aa(lp176
I4
aI0
aI0
aa(lp177
I2
aI0
aI0
aa(lp178
I2
aI0
aI0
aa(lp179
I3
aI0
aI0
aa(lp180
I3
aI0
aI0
aa(lp181
I11
aI0
aI0
aa(lp182
I14
aI0
aI0
aa(lp183
I2
aI0
aI0
aa(lp184
I2
aI0
aI0
aa(lp185
I2
aI0
aI0
aa(lp186
I2
aI0
aI0
aa(lp187
I2
aI0
aI0
aa(lp188
I5
aI0
aI0
aa(lp189
I2
aI0
aI0
aa(lp190
I3
aI0
aI0
aa(lp191
I2
aI0
aI0
aa(lp192
I2
aI0
aI0
aa(lp193
I2
aI0
aI0
aa(lp194
I3
aI0
aI0
aa(lp195
I3
aI0
aI0
aa(lp196
I2
aI0
aI0
aa(lp197
I3
aI0
aI0
aa(lp198
I2
aI0
aI0
aa(lp199
I3
aI0
aI0
aa(lp200
I4
aI0
aI0
aa(lp201
I2
aI0
aI0
aa(lp202
I2
aI0
aI0
aa(lp203
I2
aI0
aI0
aa(lp204
I2
aI0
aI0
aa(lp205
I2
aI0
aI0
aa(lp206
I2
aI0
aI0
aa(lp207
I2
aI0
aI0
aa(lp208
I2
aI0
aI0
aa(lp209
I2
aI0
aI0
aa(lp210
I5
aI0
aI0
aa(lp211
I2
aI0
aI0
aa(lp212
I2
aI0
aI0
aa(lp213
I2
aI0
aI0
aa(lp214
I4
aI0
aI0
aa(lp215
I2
aI0
aI0
aa(lp216
I5
aI0
aI0
aa(lp217
I3
aI0
aI0
aa(lp218
I2
aI0
aI0
aa(lp219
I2
aI0
aI0
aa(lp220
I2
aI0
aI0
aa(lp221
I2
aI0
aI0
aa(lp222
I7
aI0
aI0
aa(lp223
I4
aI0
aI0
aa(lp224
I2
aI0
aI0
aa(lp225
I3
aI0
aI0
aa(lp226
I4
aI0
aI0
aa(lp227
I14
aI0
aI0
aa(lp228
I2
aI0
aI0
aa(lp229
I2
aI0
aI0
aa(lp230
I2
aI0
aI0
aa(lp231
I2
aI0
aI0
aa(lp232
I2
aI0
aI0
aa(lp233
I2
aI0
aI0
aa(lp234
I5
aI0
aI0
aa(lp235
I3
aI0
aI0
aa(lp236
I2
aI0
aI0
aa(lp237
I4
aI0
aI0
aa(lp238
I2
aI0
aI0
aa(lp239
I2
aI0
aI0
aa(lp240
I2
aI0
aI0
aa(lp241
I6
aI0
aI0
aa(lp242
I3
aI0
aI0
aa(lp243
I2
aI0
aI0
aa(lp244
I2
aI0
aI0
aa(lp245
I2
aI0
aI0
aa(lp246
I3
aI0
aI0
aa(lp247
I3
aI0
aI0
aa(lp248
I2
aI0
aI0
aa(lp249
I2
aI0
aI0
aa(lp250
I4
aI0
aI0
aa(lp251
I2
aI0
aI0
aa(lp252
I2
aI0
aI0
aa(lp253
I2
aI0
aI0
aa(lp254
I2
aI0
aI0
aa(lp255
I2
aI0
aI0
aa(lp256
I2
aI0
aI0
aa(lp257
I2
aI0
aI0
aa(lp258
I2
aI0
aI0
aa(lp259
I3
aI0
aI0
aa(lp260
I2
aI0
aI0
aa(lp261
I4
aI0
aI0
aa(lp262
I2
aI0
aI0
aa(lp263
I2
aI0
aI0
aa(lp264
I2
aI0
aI0
aa(lp265
I2
aI0
aI0
aa(lp266
I2
aI0
aI0
aa(lp267
I2
aI0
aI0
aa(lp268
I2
aI0
aI0
aa(lp269
I3
aI0
aI0
aa(lp270
I2
aI0
aI0
aa(lp271
I2
aI0
aI0
aa.