(lp1
(lp2
I2
aI0
aI0
aa(lp3
I6
aI0
aI0
aa(lp4
I4
aI0
aI0
aa(lp5
I2
aI0
aI0
aa(lp6
I2
aI0
aI0
aa(lp7
I3
aI0
aI0
aa(lp8
I2
aI0
aI0
aa(lp9
I2
aI0
aI0
aa(lp10
I2
aI0
aI0
aa(lp11
I2
aI0
aI0
aa(lp12
I2
aI0
aI0
aa(lp13
I2
aI0
aI0
aa(lp14
I9
aI0
aI0
aa(lp15
I2
aI0
aI0
aa(lp16
I2
aI0
aI0
aa(lp17
I5
aI0
aI0
aa(lp18
I2
aI0
aI0
aa(lp19
I14
aI0
aI0
aa(lp20
I2
aI0
aI0
aa(lp21
I3
aI0
aI0
aa(lp22
I2
aI0
aI0
aa(lp23
I2
aI0
aI0
aa(lp24
I3
aI0
aI0
aa(lp25
I2
aI0
aI0
aa(lp26
I2
aI0
aI0
aa(lp27
I2
aI0
aI0
aa(lp28
I3
aI0
aI0
aa(lp29
I2
aI0
aI0
aa(lp30
I2
aI0
aI0
aa.