(lp1
(lp2
I2
aI0
aI0
aa(lp3
I2
aI0
aI0
aa(lp4
I20
aI0
aI0
aa(lp5
I4
aI0
aI0
aa(lp6
I2
aI0
aI0
aa(lp7
I2
aI0
aI0
aa(lp8
I2
aI0
aI0
aa(lp9
I3
aI0
aI0
aa(lp10
I2
aI0
aI0
aa(lp11
I2
aI0
aI0
aa(lp12
I2
aI0
aI0
aa(lp13
I2
aI0
aI0
aa(lp14
I6
aI0
aI0
aa(lp15
I2
aI0
aI0
aa(lp16
I6
aI0
aI0
aa(lp17
I5
aI0
aI0
aa(lp18
I2
aI0
aI0
aa(lp19
I4
aI0
aI0
aa(lp20
I2
aI0
aI0
aa(lp21
I3
aI0
aI0
aa(lp22
I3
aI0
aI0
aa(lp23
I2
aI0
aI0
aa(lp24
I4
aI0
aI0
aa(lp25
I2
aI0
aI0
aa(lp26
I7
aI0
aI0
aa(lp27
I3
aI0
aI0
aa(lp28
I3
aI0
aI0
aa(lp29
I2
aI0
aI0
aa(lp30
I10
aI0
aI0
aa(lp31
I2
aI0
aI0
aa(lp32
I4
aI0
aI0
aa(lp33
I2
aI0
aI0
aa(lp34
I3
aI0
aI0
aa(lp35
I2
aI0
aI0
aa(lp36
I4
aI0
aI0
aa(lp37
I2
aI0
aI0
aa(lp38
I2
aI0
aI0
aa(lp39
I2
aI0
aI0
aa(lp40
I2
aI0
aI0
aa(lp41
I3
aI0
aI0
aa(lp42
I2
aI0
aI0
aa(lp43
I2
aI0
aI0
aa(lp44
I2
aI0
aI0
aa(lp45
I2
aI0
aI0
aa(lp46
I2
aI0
aI0
aa(lp47
I2
aI0
aI0
aa(lp48
I2
aI0
aI0
aa(lp49
I3
aI0
aI0
aa(lp50
I4
aI0
aI0
aa(lp51
I2
aI0
aI0
aa(lp52
I6
aI0
aI0
aa(lp53
I2
aI0
aI0
aa(lp54
I4
aI0
aI0
aa(lp55
I2
aI0
aI0
aa(lp56
I3
aI0
aI0
aa(lp57
I11
aI0
aI0
aa(lp58
I2
aI0
aI0
aa(lp59
I2
aI0
aI0
aa(lp60
I3
aI0
aI0
aa(lp61
I2
aI0
aI0
aa(lp62
I2
aI0
aI0
aa(lp63
I2
aI0
aI0
aa(lp64
I3
aI0
aI0
aa(lp65
I2
aI0
aI0
aa(lp66
I2
aI0
aI0
aa(lp67
I3
aI0
aI0
aa(lp68
I2
aI0
aI0
aa(lp69
I2
aI0
aI0
aa(lp70
I2
aI0
aI0
aa(lp71
I2
aI0
aI0
aa(lp72
I4
aI0
aI0
aa(lp73
I3
aI0
aI0
aa(lp74
I2
aI0
aI0
aa(lp75
I7
aI0
aI0
aa(lp76
I2
aI0
aI0
aa(lp77
I2
aI0
aI0
aa(lp78
I2
aI0
aI0
aa(lp79
I5
aI0
aI0
aa(lp80
I7
aI0
aI0
aa(lp81
I2
aI0
aI0
aa(lp82
I3
aI0
aI0
aa(lp83
I3
aI0
aI0
aa(lp84
I2
aI0
aI0
aa(lp85
I2
aI0
aI0
aa(lp86
I2
aI0
aI0
aa(lp87
I2
aI0
aI0
aa(lp88
I2
aI0
aI0
aa(lp89
I2
aI0
aI0
aa(lp90
I2
aI0
aI0
aa(lp91
I2
aI0
aI0
aa(lp92
I2
aI0
aI0
aa(lp93
I5
aI0
aI0
aa(lp94
I2
aI0
aI0
aa(lp95
I2
aI0
aI0
aa(lp96
I3
aI0
aI0
aa(lp97
I5
aI0
aI0
aa(lp98
I2
aI0
aI0
aa(lp99
I4
aI0
aI0
aa(lp100
I2
aI0
aI0
aa(lp101
I3
aI0
aI0
aa(lp102
I2
aI0
aI0
aa(lp103
I3
aI0
aI0
aa(lp104
I2
aI0
aI0
aa(lp105
I2
aI0
aI0
aa(lp106
I2
aI0
aI0
aa(lp107
I2
aI0
aI0
aa(lp108
I2
aI0
aI0
aa(lp109
I3
aI0
aI0
aa(lp110
I3
aI1
aI0
aa(lp111
I2
aI0
aI0
aa(lp112
I2
aI0
aI0
aa(lp113
I2
aI0
aI0
aa(lp114
I6
aI0
aI0
aa(lp115
I2
aI0
aI0
aa(lp116
I2
aI0
aI0
aa(lp117
I2
aI0
aI0
aa(lp118
I3
aI0
aI0
aa(lp119
I2
aI0
aI0
aa(lp120
I2
aI0
aI0
aa(lp121
I8
aI0
aI0
aa(lp122
I2
aI0
aI0
aa(lp123
I2
aI0
aI0
aa(lp124
I2
aI0
aI0
aa(lp125
I2
aI0
aI0
aa(lp126
I4
aI0
aI0
aa(lp127
I4
aI0
aI0
aa(lp128
I2
aI0
aI0
aa(lp129
I2
aI0
aI0
aa(lp130
I2
aI0
aI0
aa(lp131
I2
aI0
aI0
aa(lp132
I2
aI0
aI0
aa(lp133
I3
aI0
aI0
aa(lp134
I3
aI1
aI0
aa(lp135
I3
aI0
aI0
aa(lp136
I2
aI0
aI0
aa(lp137
I2
aI0
aI0
aa(lp138
I7
aI0
aI0
aa(lp139
I2
aI0
aI0
aa(lp140
I2
aI0
aI0
aa(lp141
I2
aI0
aI0
aa(lp142
I2
aI0
aI0
aa(lp143
I4
aI0
aI0
aa(lp144
I3
aI0
aI0
aa(lp145
I2
aI0
aI0
aa(lp146
I2
aI0
aI0
aa(lp147
I4
aI0
aI0
aa(lp148
I3
aI0
aI0
aa(lp149
I5
aI0
aI0
aa(lp150
I2
aI0
aI0
aa(lp151
I2
aI0
aI0
aa(lp152
I3
aI0
aI0
aa(lp153
I2
aI0
aI0
aa(lp154
I2
aI0
aI0
aa(lp155
I6
aI0
aI0
aa(lp156
I2
aI0
aI0
aa(lp157
I2
aI0
aI0
aa(lp158
I3
aI0
aI0
aa(lp159
I2
aI0
aI0
aa(lp160
I2
aI0
aI0
aa(lp161
I2
aI0
aI0
aa(lp162
I7
aI0
aI0
aa(lp163
I2
aI0
aI0
aa(lp164
I2
aI0
aI0
aa(lp165
I2
aI0
aI0
aa(lp166
I2
aI0
aI0
aa(lp167
I2
aI0
aI0
aa(lp168
I2
aI0
aI0
aa(lp169
I2
aI0
aI0
aa(lp170
I2
aI0
aI0
aa(lp171
I4
aI0
aI0
aa(lp172
I2
aI0
aI0
aa(lp173
I2
aI0
aI0
aa(lp174
I10
aI0
aI0
aa(lp175
I2
aI0
aI0
aa(lp176
I2
aI0
aI0
aa(lp177
I5
aI0
aI0
aa(lp178
I2
aI0
aI0
aa(lp179
I2
aI0
aI0
aa(lp180
I2
aI0
aI0
aa(lp181
I2
aI0
aI0
aa(lp182
I2
aI0
aI0
aa(lp183
I3
aI0
aI0
aa(lp184
I2
aI0
aI0
aa(lp185
I3
aI1
aI0
aa(lp186
I2
aI0
aI0
aa(lp187
I2
aI0
aI0
aa(lp188
I4
aI0
aI0
aa(lp189
I2
aI0
aI0
aa(lp190
I2
aI0
aI0
aa(lp191
I3
aI0
aI0
aa(lp192
I2
aI0
aI0
aa(lp193
I2
aI0
aI0
aa(lp194
I2
aI0
aI0
aa(lp195
I4
aI0
aI0
aa(lp196
I4
aI0
aI0
aa(lp197
I2
aI0
aI0
aa(lp198
I2
aI0
aI0
aa(lp199
I2
aI0
aI0
aa(lp200
I2
aI0
aI0
aa(lp201
I3
aI0
aI0
aa(lp202
I2
aI0
aI0
aa(lp203
I2
aI0
aI0
aa(lp204
I2
aI0
aI0
aa(lp205
I2
aI0
aI0
aa(lp206
I2
aI0
aI0
aa(lp207
I4
aI0
aI0
aa(lp208
I3
aI0
aI0
aa(lp209
I2
aI0
aI0
aa(lp210
I2
aI0
aI0
aa(lp211
I2
aI0
aI0
aa(lp212
I5
aI0
aI0
aa(lp213
I3
aI0
aI0
aa(lp214
I2
aI0
aI0
aa(lp215
I2
aI0
aI0
aa(lp216
I2
aI0
aI0
aa(lp217
I4
aI0
aI0
aa(lp218
I2
aI0
aI0
aa(lp219
I3
aI0
aI0
aa(lp220
I3
aI0
aI0
aa(lp221
I2
aI0
aI0
aa(lp222
I2
aI0
aI0
aa(lp223
I2
aI0
aI0
aa(lp224
I2
aI0
aI0
aa(lp225
I2
aI0
aI0
aa(lp226
I2
aI0
aI0
aa(lp227
I2
aI0
aI0
aa(lp228
I6
aI0
aI0
aa(lp229
I4
aI0
aI0
aa(lp230
I2
aI0
aI0
aa(lp231
I3
aI0
aI0
aa(lp232
I8
aI0
aI0
aa(lp233
I2
aI0
aI0
aa(lp234
I4
aI0
aI0
aa(lp235
I2
aI0
aI0
aa(lp236
I2
aI0
aI0
aa(lp237
I2
aI0
aI0
aa(lp238
I2
aI0
aI0
aa(lp239
I2
aI0
aI0
aa(lp240
I16
aI0
aI0
aa(lp241
I14
aI0
aI0
aa(lp242
I2
aI0
aI0
aa(lp243
I2
aI0
aI0
aa(lp244
I2
aI0
aI0
aa(lp245
I2
aI0
aI0
aa(lp246
I2
aI0
aI0
aa(lp247
I2
aI0
aI0
aa(lp248
I2
aI0
aI0
aa(lp249
I2
aI0
aI0
aa(lp250
I2
aI0
aI0
aa(lp251
I2
aI0
aI0
aa(lp252
I2
aI0
aI0
aa(lp253
I2
aI0
aI0
aa(lp254
I2
aI0
aI0
aa(lp255
I4
aI0
aI0
aa(lp256
I3
aI0
aI0
aa(lp257
I2
aI0
aI0
aa(lp258
I2
aI0
aI0
aa(lp259
I3
aI0
aI0
aa(lp260
I2
aI0
aI0
aa(lp261
I2
aI0
aI0
aa(lp262
I3
aI0
aI0
aa(lp263
I2
aI0
aI0
aa(lp264
I2
aI0
aI0
aa(lp265
I2
aI0
aI0
aa(lp266
I3
aI0
aI0
aa(lp267
I2
aI0
aI0
aa(lp268
I2
aI0
aI0
aa(lp269
I2
aI0
aI0
aa(lp270
I2
aI0
aI0
aa(lp271
I3
aI0
aI0
aa(lp272
I2
aI0
aI0
aa(lp273
I2
aI0
aI0
aa(lp274
I3
aI0
aI0
aa(lp275
I2
aI0
aI0
aa(lp276
I3
aI0
aI0
aa(lp277
I2
aI0
aI0
aa(lp278
I2
aI0
aI0
aa(lp279
I2
aI0
aI0
aa(lp280
I2
aI0
aI0
aa(lp281
I2
aI0
aI0
aa(lp282
I2
aI0
aI0
aa(lp283
I7
aI0
aI0
aa(lp284
I2
aI0
aI0
aa(lp285
I2
aI0
aI0
aa(lp286
I2
aI0
aI0
aa(lp287
I3
aI0
aI0
aa(lp288
I2
aI0
aI0
aa(lp289
I2
aI0
aI0
aa(lp290
I2
aI0
aI0
aa(lp291
I2
aI0
aI0
aa(lp292
I2
aI0
aI0
aa(lp293
I3
aI0
aI0
aa(lp294
I2
aI0
aI0
aa(lp295
I2
aI0
aI0
aa(lp296
I3
aI0
aI0
aa(lp297
I6
aI0
aI0
aa(lp298
I2
aI0
aI0
aa(lp299
I2
aI0
aI0
aa(lp300
I4
aI0
aI0
aa(lp301
I2
aI0
aI0
aa(lp302
I2
aI0
aI0
aa(lp303
I2
aI0
aI0
aa(lp304
I2
aI0
aI0
aa(lp305
I2
aI0
aI0
aa(lp306
I5
aI0
aI0
aa(lp307
I4
aI0
aI0
aa(lp308
I3
aI0
aI0
aa(lp309
I2
aI0
aI0
aa(lp310
I6
aI0
aI0
aa(lp311
I2
aI0
aI0
aa(lp312
I2
aI0
aI0
aa(lp313
I2
aI0
aI0
aa(lp314
I2
aI0
aI0
aa(lp315
I2
aI0
aI0
aa(lp316
I3
aI0
aI0
aa(lp317
I3
aI1
aI0
aa(lp318
I2
aI0
aI0
aa(lp319
I2
aI0
aI0
aa(lp320
I2
aI0
aI0
aa(lp321
I3
aI0
aI0
aa(lp322
I3
aI0
aI0
aa(lp323
I3
aI0
aI0
aa(lp324
I2
aI0
aI0
aa(lp325
I2
aI0
aI0
aa(lp326
I2
aI0
aI0
aa(lp327
I13
aI0
aI0
aa(lp328
I2
aI0
aI0
aa(lp329
I2
aI0
aI0
aa(lp330
I2
aI0
aI0
aa(lp331
I2
aI0
aI0
aa(lp332
I2
aI0
aI0
aa(lp333
I2
aI0
aI0
aa(lp334
I3
aI1
aI0
aa(lp335
I2
aI0
aI0
aa(lp336
I2
aI0
aI0
aa(lp337
I2
aI0
aI0
aa(lp338
I3
aI0
aI0
aa(lp339
I2
aI0
aI0
aa(lp340
I2
aI0
aI0
aa(lp341
I3
aI0
aI0
aa(lp342
I3
aI0
aI0
aa(lp343
I3
aI0
aI0
aa(lp344
I3
aI0
aI0
aa(lp345
I2
aI0
aI0
aa(lp346
I2
aI0
aI0
aa(lp347
I2
aI0
aI0
aa(lp348
I2
aI0
aI0
aa(lp349
I2
aI0
aI0
aa(lp350
I3
aI0
aI0
aa(lp351
I2
aI0
aI0
aa(lp352
I3
aI0
aI0
aa(lp353
I2
aI0
aI0
aa(lp354
I2
aI0
aI0
aa(lp355
I3
aI0
aI0
aa(lp356
I9
aI0
aI0
aa(lp357
I3
aI0
aI0
aa(lp358
I5
aI0
aI0
aa(lp359
I2
aI0
aI0
aa(lp360
I2
aI0
aI0
aa(lp361
I3
aI0
aI0
aa(lp362
I2
aI0
aI0
aa(lp363
I2
aI0
aI0
aa(lp364
I2
aI0
aI0
aa(lp365
I7
aI0
aI0
aa(lp366
I7
aI0
aI0
aa(lp367
I2
aI0
aI0
aa(lp368
I3
aI0
aI0
aa(lp369
I2
aI0
aI0
aa(lp370
I7
aI0
aI0
aa(lp371
I2
aI0
aI0
aa(lp372
I2
aI0
aI0
aa(lp373
I2
aI0
aI0
aa(lp374
I2
aI0
aI0
aa(lp375
I3
aI0
aI0
aa(lp376
I3
aI0
aI0
aa(lp377
I3
aI0
aI0
aa(lp378
I2
aI0
aI0
aa(lp379
I2
aI0
aI0
aa(lp380
I2
aI0
aI0
aa(lp381
I2
aI0
aI0
aa(lp382
I2
aI0
aI0
aa(lp383
I2
aI0
aI0
aa(lp384
I2
aI0
aI0
aa(lp385
I3
aI0
aI0
aa(lp386
I2
aI0
aI0
aa(lp387
I2
aI0
aI0
aa(lp388
I8
aI0
aI0
aa(lp389
I4
aI0
aI0
aa(lp390
I3
aI0
aI0
aa(lp391
I3
aI0
aI0
aa(lp392
I2
aI0
aI0
aa(lp393
I3
aI0
aI0
aa(lp394
I2
aI0
aI0
aa(lp395
I3
aI0
aI0
aa(lp396
I2
aI0
aI0
aa(lp397
I3
aI0
aI0
aa(lp398
I3
aI0
aI0
aa(lp399
I2
aI0
aI0
aa(lp400
I2
aI0
aI0
aa(lp401
I7
aI0
aI0
aa(lp402
I7
aI0
aI0
aa(lp403
I4
aI0
aI0
aa(lp404
I10
aI0
aI0
aa(lp405
I2
aI0
aI0
aa(lp406
I3
aI0
aI0
aa(lp407
I7
aI0
aI0
aa(lp408
I5
aI0
aI0
aa(lp409
I2
aI0
aI0
aa(lp410
I2
aI0
aI0
aa(lp411
I3
aI0
aI0
aa(lp412
I2
aI0
aI0
aa(lp413
I2
aI0
aI0
aa(lp414
I2
aI0
aI0
aa(lp415
I2
aI0
aI0
aa(lp416
I3
aI0
aI0
aa(lp417
I3
aI0
aI0
aa(lp418
I2
aI0
aI0
aa(lp419
I2
aI0
aI0
aa(lp420
I3
aI0
aI0
aa(lp421
I4
aI0
aI0
aa(lp422
I2
aI0
aI0
aa(lp423
I3
aI0
aI0
aa(lp424
I4
aI0
aI0
aa(lp425
I2
aI0
aI0
aa(lp426
I6
aI0
aI0
aa(lp427
I2
aI0
aI0
aa(lp428
I2
aI0
aI0
aa(lp429
I3
aI0
aI0
aa(lp430
I2
aI0
aI0
aa(lp431
I7
aI0
aI0
aa(lp432
I2
aI0
aI0
aa(lp433
I2
aI0
aI0
aa(lp434
I5
aI0
aI0
aa(lp435
I3
aI0
aI0
aa(lp436
I3
aI0
aI0
aa(lp437
I2
aI0
aI0
aa(lp438
I3
aI0
aI0
aa(lp439
I3
aI0
aI0
aa(lp440
I2
aI0
aI0
aa(lp441
I2
aI0
aI0
aa(lp442
I3
aI0
aI0
aa(lp443
I2
aI0
aI0
aa(lp444
I2
aI0
aI0
aa(lp445
I2
aI0
aI0
aa(lp446
I2
aI0
aI0
aa(lp447
I2
aI0
aI0
aa(lp448
I2
aI0
aI0
aa(lp449
I2
aI0
aI0
aa(lp450
I3
aI0
aI0
aa(lp451
I3
aI0
aI0
aa(lp452
I2
aI0
aI0
aa(lp453
I4
aI0
aI0
aa(lp454
I2
aI0
aI0
aa(lp455
I6
aI0
aI0
aa(lp456
I2
aI0
aI0
aa(lp457
I4
aI0
aI0
aa(lp458
I2
aI0
aI0
aa(lp459
I2
aI0
aI0
aa(lp460
I2
aI0
aI0
aa(lp461
I2
aI0
aI0
aa(lp462
I2
aI0
aI0
aa(lp463
I2
aI0
aI0
aa(lp464
I4
aI0
aI0
aa(lp465
I2
aI0
aI0
aa(lp466
I2
aI0
aI0
aa(lp467
I2
aI0
aI0
aa(lp468
I3
aI0
aI0
aa(lp469
I2
aI0
aI0
aa(lp470
I2
aI0
aI0
aa(lp471
I4
aI0
aI0
aa(lp472
I6
aI0
aI0
aa(lp473
I2
aI0
aI0
aa(lp474
I2
aI0
aI0
aa(lp475
I2
aI0
aI0
aa(lp476
I2
aI0
aI0
aa(lp477
I3
aI0
aI0
aa.