(lp1
(lp2
I3
aI0
aI0
aa(lp3
I2
aI0
aI0
aa(lp4
I3
aI0
aI0
aa(lp5
I5
aI0
aI0
aa(lp6
I4
aI0
aI0
aa(lp7
I2
aI0
aI0
aa(lp8
I2
aI0
aI0
aa(lp9
I3
aI0
aI0
aa(lp10
I2
aI0
aI0
aa(lp11
I2
aI0
aI0
aa(lp12
I3
aI0
aI0
aa(lp13
I2
aI0
aI0
aa(lp14
I4
aI0
aI0
aa(lp15
I2
aI0
aI0
aa(lp16
I3
aI0
aI0
aa(lp17
I2
aI0
aI0
aa(lp18
I2
aI0
aI0
aa(lp19
I2
aI0
aI0
aa(lp20
I2
aI0
aI0
aa(lp21
I2
aI0
aI0
aa(lp22
I2
aI0
aI0
aa(lp23
I2
aI0
aI0
aa(lp24
I2
aI0
aI0
aa(lp25
I2
aI0
aI0
aa(lp26
I4
aI0
aI0
aa(lp27
I2
aI0
aI0
aa(lp28
I2
aI0
aI0
aa(lp29
I2
aI0
aI0
aa(lp30
I5
aI0
aI0
aa(lp31
I3
aI0
aI0
aa(lp32
I3
aI0
aI0
aa(lp33
I4
aI0
aI0
aa(lp34
I2
aI0
aI0
aa(lp35
I2
aI0
aI0
aa(lp36
I2
aI0
aI0
aa(lp37
I2
aI0
aI0
aa(lp38
I2
aI0
aI0
aa(lp39
I2
aI0
aI0
aa(lp40
I2
aI0
aI0
aa(lp41
I2
aI0
aI0
aa(lp42
I2
aI0
aI0
aa(lp43
I2
aI0
aI0
aa(lp44
I2
aI0
aI0
aa(lp45
I2
aI0
aI0
aa(lp46
I2
aI0
aI0
aa(lp47
I2
aI0
aI0
aa(lp48
I2
aI0
aI0
aa(lp49
I3
aI0
aI0
aa(lp50
I2
aI0
aI0
aa(lp51
I2
aI0
aI0
aa(lp52
I2
aI0
aI0
aa(lp53
I2
aI0
aI0
aa(lp54
I2
aI0
aI0
aa(lp55
I2
aI0
aI0
aa(lp56
I3
aI0
aI0
aa(lp57
I2
aI0
aI0
aa(lp58
I2
aI0
aI0
aa(lp59
I2
aI0
aI0
aa(lp60
I2
aI0
aI0
aa(lp61
I2
aI0
aI0
aa(lp62
I3
aI0
aI0
aa(lp63
I2
aI0
aI0
aa(lp64
I3
aI0
aI0
aa(lp65
I2
aI0
aI0
aa(lp66
I5
aI0
aI0
aa(lp67
I2
aI0
aI0
aa(lp68
I5
aI0
aI0
aa(lp69
I2
aI0
aI0
aa(lp70
I2
aI0
aI0
aa(lp71
I2
aI0
aI0
aa(lp72
I4
aI0
aI0
aa(lp73
I4
aI0
aI0
aa(lp74
I2
aI0
aI0
aa(lp75
I2
aI0
aI0
aa(lp76
I2
aI0
aI0
aa(lp77
I2
aI0
aI0
aa(lp78
I6
aI0
aI0
aa(lp79
I2
aI0
aI0
aa(lp80
I2
aI0
aI0
aa(lp81
I3
aI0
aI0
aa(lp82
I2
aI0
aI0
aa(lp83
I4
aI0
aI0
aa(lp84
I2
aI0
aI0
aa(lp85
I2
aI0
aI0
aa(lp86
I3
aI0
aI0
aa(lp87
I3
aI0
aI0
aa(lp88
I2
aI0
aI0
aa(lp89
I2
aI0
aI0
aa(lp90
I3
aI0
aI0
aa(lp91
I2
aI0
aI0
aa(lp92
I2
aI0
aI0
aa(lp93
I2
aI0
aI0
aa(lp94
I2
aI0
aI0
aa(lp95
I3
aI0
aI0
aa(lp96
I2
aI0
aI0
aa(lp97
I2
aI0
aI0
aa(lp98
I2
aI0
aI0
aa(lp99
I2
aI0
aI0
aa(lp100
I2
aI0
aI0
aa(lp101
I3
aI0
aI0
aa(lp102
I2
aI0
aI0
aa(lp103
I2
aI0
aI0
aa(lp104
I2
aI0
aI0
aa(lp105
I2
aI0
aI0
aa(lp106
I2
aI0
aI0
aa(lp107
I2
aI0
aI0
aa(lp108
I2
aI0
aI0
aa(lp109
I2
aI0
aI0
aa(lp110
I2
aI0
aI0
aa(lp111
I3
aI0
aI0
aa(lp112
I8
aI0
aI0
aa(lp113
I2
aI0
aI0
aa(lp114
I3
aI0
aI0
aa(lp115
I2
aI0
aI0
aa(lp116
I3
aI0
aI0
aa(lp117
I4
aI0
aI0
aa(lp118
I2
aI0
aI0
aa(lp119
I3
aI0
aI0
aa(lp120
I2
aI0
aI0
aa(lp121
I4
aI0
aI0
aa(lp122
I2
aI0
aI0
aa(lp123
I3
aI0
aI0
aa(lp124
I2
aI0
aI0
aa(lp125
I2
aI0
aI0
aa(lp126
I3
aI0
aI0
aa(lp127
I2
aI0
aI0
aa(lp128
I2
aI0
aI0
aa(lp129
I9
aI0
aI0
aa(lp130
I2
aI0
aI0
aa(lp131
I2
aI0
aI0
aa(lp132
I7
aI0
aI0
aa.