(lp1
(lp2
I2
aI0
aI0
aa(lp3
I2
aI0
aI0
aa(lp4
I2
aI0
aI0
aa(lp5
I2
aI0
aI0
aa(lp6
I2
aI0
aI0
aa(lp7
I2
aI0
aI0
aa(lp8
I2
aI0
aI0
aa(lp9
I9
aI0
aI0
aa(lp10
I2
aI0
aI0
aa(lp11
I2
aI0
aI0
aa(lp12
I2
aI0
aI0
aa(lp13
I4
aI0
aI0
aa(lp14
I2
aI0
aI0
aa(lp15
I4
aI0
aI0
aa(lp16
I3
aI0
aI0
aa(lp17
I2
aI0
aI0
aa(lp18
I2
aI0
aI0
aa(lp19
I3
aI0
aI0
aa(lp20
I2
aI0
aI0
aa(lp21
I2
aI0
aI0
aa(lp22
I2
aI0
aI0
aa(lp23
I6
aI0
aI0
aa(lp24
I5
aI0
aI0
aa(lp25
I5
aI0
aI0
aa(lp26
I5
aI0
aI0
aa(lp27
I4
aI0
aI0
aa(lp28
I3
aI0
aI0
aa(lp29
I5
aI0
aI0
aa(lp30
I2
aI0
aI0
aa(lp31
I2
aI0
aI0
aa(lp32
I10
aI0
aI0
aa(lp33
I4
aI0
aI0
aa(lp34
I3
aI0
aI0
aa(lp35
I4
aI0
aI0
aa(lp36
I2
aI0
aI0
aa(lp37
I4
aI0
aI0
aa(lp38
I12
aI0
aI0
aa(lp39
I2
aI0
aI0
aa(lp40
I2
aI0
aI0
aa(lp41
I4
aI0
aI0
aa(lp42
I3
aI0
aI0
aa(lp43
I9
aI0
aI0
aa(lp44
I3
aI0
aI0
aa(lp45
I2
aI0
aI0
aa(lp46
I2
aI0
aI0
aa(lp47
I2
aI0
aI0
aa(lp48
I2
aI0
aI0
aa(lp49
I3
aI0
aI0
aa(lp50
I2
aI0
aI0
aa(lp51
I6
aI0
aI0
aa(lp52
I2
aI0
aI0
aa(lp53
I2
aI0
aI0
aa(lp54
I3
aI0
aI0
aa(lp55
I2
aI0
aI0
aa(lp56
I2
aI0
aI0
aa(lp57
I3
aI0
aI0
aa(lp58
I2
aI0
aI0
aa(lp59
I2
aI0
aI0
aa(lp60
I3
aI0
aI0
aa(lp61
I2
aI0
aI0
aa(lp62
I2
aI0
aI0
aa(lp63
I2
aI0
aI0
aa(lp64
I2
aI0
aI0
aa(lp65
I2
aI0
aI0
aa(lp66
I2
aI0
aI0
aa(lp67
I2
aI0
aI0
aa(lp68
I23
aI0
aI0
aa(lp69
I2
aI0
aI0
aa(lp70
I2
aI0
aI0
aa(lp71
I2
aI0
aI0
aa(lp72
I2
aI0
aI0
aa(lp73
I2
aI0
aI0
aa(lp74
I3
aI0
aI0
aa(lp75
I3
aI0
aI0
aa(lp76
I3
aI0
aI0
aa(lp77
I2
aI0
aI0
aa(lp78
I2
aI0
aI0
aa(lp79
I2
aI0
aI0
aa(lp80
I2
aI0
aI0
aa(lp81
I2
aI0
aI0
aa(lp82
I2
aI0
aI0
aa(lp83
I2
aI0
aI0
aa(lp84
I7
aI0
aI0
aa(lp85
I2
aI0
aI0
aa(lp86
I2
aI0
aI0
aa(lp87
I6
aI0
aI0
aa(lp88
I3
aI0
aI0
aa(lp89
I2
aI0
aI0
aa(lp90
I9
aI0
aI0
aa(lp91
I2
aI0
aI0
aa(lp92
I2
aI0
aI0
aa(lp93
I2
aI0
aI0
aa(lp94
I2
aI0
aI0
aa(lp95
I3
aI0
aI0
aa(lp96
I2
aI0
aI0
aa(lp97
I2
aI0
aI0
aa(lp98
I3
aI0
aI0
aa(lp99
I2
aI0
aI0
aa(lp100
I2
aI0
aI0
aa(lp101
I2
aI0
aI0
aa(lp102
I2
aI0
aI0
aa(lp103
I2
aI0
aI0
aa(lp104
I2
aI0
aI0
aa(lp105
I7
aI0
aI0
aa(lp106
I2
aI0
aI0
aa(lp107
I2
aI0
aI0
aa(lp108
I2
aI0
aI0
aa(lp109
I3
aI0
aI0
aa(lp110
I2
aI0
aI0
aa(lp111
I2
aI0
aI0
aa(lp112
I2
aI0
aI0
aa(lp113
I2
aI0
aI0
aa(lp114
I2
aI0
aI0
aa(lp115
I2
aI0
aI0
aa(lp116
I2
aI0
aI0
aa(lp117
I2
aI0
aI0
aa(lp118
I2
aI0
aI0
aa(lp119
I3
aI0
aI0
aa(lp120
I2
aI0
aI0
aa(lp121
I3
aI0
aI0
aa(lp122
I2
aI0
aI0
aa(lp123
I4
aI0
aI0
aa(lp124
I3
aI0
aI0
aa(lp125
I5
aI0
aI0
aa(lp126
I2
aI0
aI0
aa(lp127
I3
aI0
aI0
aa(lp128
I3
aI0
aI0
aa(lp129
I2
aI0
aI0
aa(lp130
I3
aI0
aI0
aa(lp131
I3
aI0
aI0
aa(lp132
I2
aI0
aI0
aa(lp133
I2
aI0
aI0
aa(lp134
I2
aI0
aI0
aa(lp135
I2
aI0
aI0
aa(lp136
I2
aI0
aI0
aa(lp137
I2
aI0
aI0
aa(lp138
I3
aI0
aI0
aa(lp139
I2
aI0
aI0
aa(lp140
I2
aI0
aI0
aa(lp141
I2
aI0
aI0
aa(lp142
I5
aI0
aI0
aa(lp143
I2
aI0
aI0
aa(lp144
I2
aI0
aI0
aa(lp145
I4
aI0
aI0
aa(lp146
I2
aI0
aI0
aa(lp147
I5
aI0
aI0
aa(lp148
I2
aI0
aI0
aa(lp149
I2
aI0
aI0
aa(lp150
I3
aI0
aI0
aa(lp151
I4
aI0
aI0
aa(lp152
I2
aI0
aI0
aa(lp153
I2
aI0
aI0
aa(lp154
I3
aI0
aI0
aa(lp155
I7
aI0
aI0
aa(lp156
I2
aI0
aI0
aa(lp157
I2
aI0
aI0
aa(lp158
I2
aI0
aI0
aa(lp159
I2
aI0
aI0
aa(lp160
I3
aI0
aI0
aa(lp161
I2
aI0
aI0
aa(lp162
I4
aI0
aI0
aa(lp163
I3
aI0
aI0
aa(lp164
I3
aI0
aI0
aa(lp165
I2
aI0
aI0
aa(lp166
I6
aI0
aI0
aa(lp167
I2
aI0
aI0
aa(lp168
I2
aI0
aI0
aa(lp169
I3
aI0
aI0
aa(lp170
I2
aI0
aI0
aa(lp171
I2
aI0
aI0
aa(lp172
I2
aI0
aI0
aa(lp173
I3
aI0
aI0
aa(lp174
I2
aI0
aI0
aa(lp175
I2
aI0
aI0
aa(lp176
I3
aI0
aI0
aa(lp177
I3
aI0
aI0
aa(lp178
I2
aI0
aI0
aa(lp179
I4
aI0
aI0
aa(lp180
I2
aI0
aI0
aa(lp181
I3
aI0
aI0
aa(lp182
I2
aI0
aI0
aa(lp183
I3
aI0
aI0
aa(lp184
I2
aI0
aI0
aa(lp185
I2
aI0
aI0
aa(lp186
I2
aI0
aI0
aa(lp187
I3
aI0
aI0
aa(lp188
I2
aI0
aI0
aa(lp189
I2
aI0
aI0
aa(lp190
I2
aI0
aI0
aa(lp191
I3
aI0
aI0
aa(lp192
I2
aI0
aI0
aa(lp193
I2
aI0
aI0
aa(lp194
I2
aI0
aI0
aa(lp195
I2
aI0
aI0
aa(lp196
I2
aI0
aI0
aa(lp197
I2
aI0
aI0
aa(lp198
I2
aI0
aI0
aa(lp199
I2
aI0
aI0
aa(lp200
I2
aI0
aI0
aa(lp201
I2
aI0
aI0
aa(lp202
I3
aI0
aI0
aa(lp203
I2
aI0
aI0
aa(lp204
I2
aI0
aI0
aa(lp205
I2
aI0
aI0
aa(lp206
I3
aI0
aI0
aa(lp207
I2
aI0
aI0
aa(lp208
I2
aI0
aI0
aa(lp209
I2
aI0
aI0
aa(lp210
I2
aI0
aI0
aa(lp211
I2
aI0
aI0
aa(lp212
I2
aI0
aI0
aa(lp213
I2
aI0
aI0
aa(lp214
I2
aI0
aI0
aa(lp215
I2
aI0
aI0
aa(lp216
I2
aI0
aI0
aa(lp217
I3
aI0
aI0
aa(lp218
I2
aI0
aI0
aa(lp219
I2
aI0
aI0
aa(lp220
I2
aI0
aI0
aa(lp221
I3
aI0
aI0
aa(lp222
I2
aI0
aI0
aa(lp223
I3
aI0
aI0
aa(lp224
I2
aI0
aI0
aa(lp225
I2
aI0
aI0
aa(lp226
I2
aI0
aI0
aa(lp227
I2
aI0
aI0
aa(lp228
I2
aI0
aI0
aa(lp229
I3
aI0
aI0
aa(lp230
I2
aI0
aI0
aa(lp231
I3
aI0
aI0
aa(lp232
I2
aI0
aI0
aa(lp233
I3
aI0
aI0
aa(lp234
I2
aI0
aI0
aa(lp235
I3
aI0
aI0
aa(lp236
I4
aI0
aI0
aa(lp237
I2
aI0
aI0
aa.