(lp1
(lp2
I2
aI0
aI0
aa(lp3
I2
aI0
aI0
aa(lp4
I3
aI0
aI0
aa(lp5
I2
aI0
aI0
aa(lp6
I3
aI0
aI0
aa(lp7
I2
aI0
aI0
aa(lp8
I3
aI0
aI0
aa(lp9
I2
aI0
aI0
aa(lp10
I2
aI0
aI0
aa(lp11
I2
aI0
aI0
aa(lp12
I2
aI0
aI0
aa(lp13
I2
aI0
aI0
aa(lp14
I5
aI0
aI0
aa(lp15
I2
aI0
aI0
aa(lp16
I2
aI0
aI0
aa(lp17
I4
aI0
aI0
aa(lp18
I2
aI0
aI0
aa(lp19
I2
aI0
aI0
aa(lp20
I2
aI0
aI0
aa(lp21
I3
aI0
aI0
aa(lp22
I2
aI0
aI0
aa(lp23
I3
aI0
aI0
aa(lp24
I3
aI0
aI0
aa(lp25
I6
aI0
aI0
aa(lp26
I3
aI0
aI0
aa(lp27
I7
aI0
aI0
aa(lp28
I2
aI0
aI0
aa(lp29
I2
aI0
aI0
aa(lp30
I3
aI0
aI0
aa(lp31
I2
aI0
aI0
aa(lp32
I2
aI0
aI0
aa(lp33
I2
aI0
aI0
aa(lp34
I3
aI0
aI0
aa(lp35
I4
aI0
aI0
aa(lp36
I3
aI0
aI0
aa(lp37
I2
aI0
aI0
aa(lp38
I2
aI0
aI0
aa(lp39
I2
aI0
aI0
aa(lp40
I3
aI0
aI0
aa(lp41
I3
aI0
aI0
aa(lp42
I2
aI0
aI0
aa(lp43
I2
aI0
aI0
aa(lp44
I2
aI0
aI0
aa(lp45
I2
aI0
aI0
aa(lp46
I6
aI0
aI0
aa(lp47
I3
aI0
aI0
aa(lp48
I3
aI0
aI0
aa(lp49
I2
aI0
aI0
aa(lp50
I4
aI0
aI0
aa(lp51
I2
aI0
aI0
aa(lp52
I3
aI0
aI0
aa(lp53
I2
aI0
aI0
aa(lp54
I2
aI0
aI0
aa(lp55
I5
aI0
aI0
aa(lp56
I2
aI0
aI0
aa(lp57
I2
aI0
aI0
aa(lp58
I2
aI0
aI0
aa(lp59
I6
aI0
aI0
aa(lp60
I2
aI0
aI0
aa(lp61
I6
aI0
aI0
aa(lp62
I2
aI0
aI0
aa(lp63
I2
aI0
aI0
aa(lp64
I2
aI0
aI0
aa(lp65
I3
aI0
aI0
aa(lp66
I2
aI0
aI0
aa(lp67
I2
aI0
aI0
aa(lp68
I3
aI0
aI0
aa(lp69
I2
aI0
aI0
aa(lp70
I2
aI0
aI0
aa(lp71
I3
aI0
aI0
aa(lp72
I2
aI0
aI0
aa(lp73
I4
aI0
aI0
aa(lp74
I5
aI0
aI0
aa(lp75
I2
aI0
aI0
aa(lp76
I3
aI0
aI0
aa(lp77
I2
aI0
aI0
aa(lp78
I2
aI0
aI0
aa(lp79
I2
aI0
aI0
aa(lp80
I4
aI0
aI0
aa(lp81
I2
aI0
aI0
aa(lp82
I2
aI0
aI0
aa(lp83
I2
aI0
aI0
aa(lp84
I2
aI0
aI0
aa(lp85
I4
aI0
aI0
aa(lp86
I3
aI0
aI0
aa(lp87
I2
aI0
aI0
aa(lp88
I2
aI0
aI0
aa(lp89
I2
aI0
aI0
aa(lp90
I2
aI0
aI0
aa(lp91
I2
aI0
aI0
aa(lp92
I2
aI0
aI0
aa(lp93
I2
aI0
aI0
aa(lp94
I6
aI0
aI0
aa(lp95
I2
aI0
aI0
aa(lp96
I2
aI0
aI0
aa(lp97
I2
aI0
aI0
aa(lp98
I2
aI0
aI0
aa(lp99
I3
aI0
aI0
aa(lp100
I2
aI0
aI0
aa(lp101
I7
aI0
aI0
aa(lp102
I3
aI0
aI0
aa(lp103
I2
aI0
aI0
aa(lp104
I2
aI0
aI0
aa(lp105
I3
aI0
aI0
aa(lp106
I2
aI0
aI0
aa(lp107
I2
aI0
aI0
aa(lp108
I2
aI0
aI0
aa(lp109
I2
aI0
aI0
aa(lp110
I3
aI0
aI0
aa(lp111
I4
aI0
aI0
aa(lp112
I3
aI0
aI0
aa(lp113
I2
aI0
aI0
aa(lp114
I2
aI0
aI0
aa(lp115
I2
aI0
aI0
aa(lp116
I3
aI0
aI0
aa(lp117
I2
aI0
aI0
aa(lp118
I3
aI0
aI0
aa(lp119
I4
aI0
aI0
aa(lp120
I13
aI0
aI0
aa(lp121
I2
aI0
aI0
aa(lp122
I6
aI0
aI0
aa(lp123
I3
aI0
aI0
aa(lp124
I6
aI0
aI0
aa(lp125
I2
aI0
aI0
aa(lp126
I2
aI0
aI0
aa(lp127
I3
aI0
aI0
aa(lp128
I2
aI0
aI0
aa(lp129
I2
aI0
aI0
aa(lp130
I2
aI0
aI0
aa(lp131
I2
aI0
aI0
aa(lp132
I3
aI0
aI0
aa(lp133
I4
aI0
aI0
aa(lp134
I2
aI0
aI0
aa.