(lp1
(lp2
I15
aI0
aI0
aa(lp3
I5
aI0
aI0
aa(lp4
I3
aI0
aI0
aa(lp5
I2
aI0
aI0
aa(lp6
I3
aI0
aI0
aa(lp7
I2
aI0
aI0
aa(lp8
I2
aI0
aI0
aa(lp9
I3
aI0
aI0
aa(lp10
I4
aI0
aI0
aa(lp11
I2
aI0
aI0
aa(lp12
I2
aI0
aI0
aa(lp13
I3
aI0
aI0
aa(lp14
I2
aI0
aI0
aa(lp15
I2
aI0
aI0
aa(lp16
I2
aI0
aI0
aa(lp17
I2
aI0
aI0
aa(lp18
I2
aI0
aI0
aa(lp19
I4
aI0
aI0
aa(lp20
I2
aI0
aI0
aa(lp21
I4
aI0
aI0
aa(lp22
I2
aI0
aI0
aa(lp23
I3
aI0
aI0
aa(lp24
I2
aI0
aI0
aa(lp25
I2
aI0
aI0
aa(lp26
I2
aI0
aI0
aa(lp27
I2
aI0
aI0
aa(lp28
I2
aI0
aI0
aa(lp29
I2
aI0
aI0
aa(lp30
I2
aI0
aI0
aa(lp31
I5
aI0
aI0
aa(lp32
I2
aI0
aI0
aa(lp33
I3
aI0
aI0
aa(lp34
I2
aI0
aI0
aa(lp35
I6
aI0
aI0
aa(lp36
I2
aI0
aI0
aa(lp37
I2
aI0
aI0
aa(lp38
I3
aI0
aI0
aa(lp39
I2
aI0
aI0
aa(lp40
I2
aI0
aI0
aa(lp41
I6
aI0
aI0
aa(lp42
I2
aI0
aI0
aa(lp43
I4
aI0
aI0
aa(lp44
I2
aI0
aI0
aa(lp45
I2
aI0
aI0
aa(lp46
I5
aI0
aI0
aa(lp47
I8
aI0
aI0
aa(lp48
I2
aI0
aI0
aa(lp49
I4
aI0
aI0
aa(lp50
I3
aI0
aI0
aa(lp51
I2
aI0
aI0
aa(lp52
I2
aI0
aI0
aa(lp53
I2
aI0
aI0
aa(lp54
I2
aI0
aI0
aa(lp55
I2
aI0
aI0
aa(lp56
I3
aI0
aI0
aa(lp57
I4
aI0
aI0
aa(lp58
I2
aI0
aI0
aa(lp59
I3
aI0
aI0
aa(lp60
I2
aI0
aI0
aa(lp61
I2
aI0
aI0
aa(lp62
I5
aI0
aI0
aa(lp63
I2
aI0
aI0
aa(lp64
I2
aI0
aI0
aa(lp65
I2
aI0
aI0
aa(lp66
I2
aI0
aI0
aa(lp67
I2
aI0
aI0
aa(lp68
I2
aI0
aI0
aa(lp69
I3
aI0
aI0
aa(lp70
I5
aI0
aI0
aa(lp71
I3
aI0
aI0
aa(lp72
I4
aI0
aI0
aa(lp73
I2
aI0
aI0
aa(lp74
I3
aI0
aI0
aa(lp75
I2
aI0
aI0
aa(lp76
I6
aI0
aI0
aa(lp77
I2
aI0
aI0
aa(lp78
I3
aI0
aI0
aa(lp79
I2
aI0
aI0
aa(lp80
I2
aI0
aI0
aa(lp81
I2
aI0
aI0
aa(lp82
I2
aI0
aI0
aa(lp83
I2
aI0
aI0
aa(lp84
I2
aI0
aI0
aa(lp85
I3
aI0
aI0
aa(lp86
I4
aI0
aI0
aa(lp87
I2
aI0
aI0
aa(lp88
I2
aI0
aI0
aa(lp89
I2
aI0
aI0
aa(lp90
I7
aI0
aI0
aa(lp91
I2
aI0
aI0
aa(lp92
I2
aI0
aI0
aa(lp93
I10
aI0
aI0
aa(lp94
I3
aI0
aI0
aa(lp95
I2
aI0
aI0
aa(lp96
I4
aI0
aI0
aa(lp97
I3
aI0
aI0
aa(lp98
I2
aI0
aI0
aa(lp99
I2
aI0
aI0
aa(lp100
I2
aI0
aI0
aa(lp101
I2
aI0
aI0
aa(lp102
I2
aI0
aI0
aa(lp103
I6
aI0
aI0
aa(lp104
I2
aI0
aI0
aa(lp105
I2
aI0
aI0
aa(lp106
I3
aI0
aI0
aa(lp107
I2
aI0
aI0
aa(lp108
I2
aI0
aI0
aa(lp109
I2
aI0
aI0
aa(lp110
I2
aI0
aI0
aa(lp111
I4
aI0
aI0
aa(lp112
I4
aI0
aI0
aa(lp113
I2
aI0
aI0
aa(lp114
I2
aI0
aI0
aa(lp115
I2
aI0
aI0
aa(lp116
I2
aI0
aI0
aa(lp117
I2
aI0
aI0
aa(lp118
I2
aI0
aI0
aa(lp119
I14
aI0
aI0
aa(lp120
I6
aI0
aI0
aa(lp121
I7
aI0
aI0
aa(lp122
I2
aI0
aI0
aa(lp123
I2
aI0
aI0
aa(lp124
I2
aI0
aI0
aa(lp125
I4
aI0
aI0
aa(lp126
I2
aI0
aI0
aa(lp127
I2
aI0
aI0
aa(lp128
I2
aI0
aI0
aa(lp129
I2
aI0
aI0
aa(lp130
I2
aI0
aI0
aa(lp131
I4
aI0
aI0
aa(lp132
I7
aI0
aI0
aa(lp133
I2
aI0
aI0
aa(lp134
I5
aI0
aI0
aa(lp135
I2
aI0
aI0
aa(lp136
I2
aI0
aI0
aa(lp137
I2
aI0
aI0
aa(lp138
I2
aI0
aI0
aa(lp139
I2
aI0
aI0
aa(lp140
I4
aI0
aI0
aa(lp141
I4
aI0
aI0
aa(lp142
I3
aI0
aI0
aa(lp143
I2
aI0
aI0
aa(lp144
I3
aI0
aI0
aa(lp145
I2
aI0
aI0
aa(lp146
I2
aI0
aI0
aa(lp147
I3
aI0
aI0
aa(lp148
I2
aI0
aI0
aa(lp149
I2
aI0
aI0
aa(lp150
I2
aI0
aI0
aa(lp151
I2
aI0
aI0
aa(lp152
I2
aI0
aI0
aa(lp153
I2
aI0
aI0
aa(lp154
I2
aI0
aI0
aa(lp155
I2
aI0
aI0
aa(lp156
I2
aI0
aI0
aa(lp157
I2
aI0
aI0
aa(lp158
I5
aI0
aI0
aa(lp159
I2
aI0
aI0
aa(lp160
I2
aI0
aI0
aa(lp161
I8
aI0
aI0
aa(lp162
I2
aI0
aI0
aa(lp163
I2
aI0
aI0
aa(lp164
I2
aI0
aI0
aa(lp165
I2
aI0
aI0
aa(lp166
I2
aI0
aI0
aa(lp167
I2
aI0
aI0
aa(lp168
I2
aI0
aI0
aa(lp169
I2
aI0
aI0
aa(lp170
I2
aI0
aI0
aa(lp171
I3
aI0
aI0
aa(lp172
I2
aI0
aI0
aa(lp173
I2
aI0
aI0
aa(lp174
I2
aI0
aI0
aa(lp175
I2
aI0
aI0
aa(lp176
I3
aI0
aI0
aa(lp177
I2
aI0
aI0
aa(lp178
I2
aI0
aI0
aa(lp179
I2
aI0
aI0
aa(lp180
I2
aI0
aI0
aa(lp181
I13
aI0
aI0
aa(lp182
I5
aI0
aI0
aa(lp183
I2
aI0
aI0
aa(lp184
I2
aI0
aI0
aa(lp185
I2
aI0
aI0
aa(lp186
I2
aI0
aI0
aa(lp187
I2
aI0
aI0
aa(lp188
I2
aI0
aI0
aa(lp189
I3
aI0
aI0
aa(lp190
I4
aI0
aI0
aa(lp191
I2
aI0
aI0
aa(lp192
I5
aI0
aI0
aa(lp193
I2
aI0
aI0
aa(lp194
I3
aI0
aI0
aa(lp195
I2
aI0
aI0
aa(lp196
I3
aI0
aI0
aa(lp197
I2
aI0
aI0
aa(lp198
I2
aI0
aI0
aa(lp199
I3
aI0
aI0
aa(lp200
I2
aI0
aI0
aa(lp201
I4
aI0
aI0
aa(lp202
I2
aI0
aI0
aa(lp203
I2
aI0
aI0
aa(lp204
I2
aI0
aI0
aa(lp205
I6
aI0
aI0
aa(lp206
I2
aI0
aI0
aa(lp207
I3
aI0
aI0
aa(lp208
I3
aI0
aI0
aa(lp209
I3
aI0
aI0
aa(lp210
I2
aI0
aI0
aa(lp211
I4
aI0
aI0
aa(lp212
I7
aI0
aI0
aa(lp213
I2
aI0
aI0
aa(lp214
I2
aI0
aI0
aa(lp215
I2
aI0
aI0
aa(lp216
I4
aI0
aI0
aa(lp217
I2
aI0
aI0
aa(lp218
I2
aI0
aI0
aa(lp219
I2
aI0
aI0
aa(lp220
I2
aI0
aI0
aa(lp221
I3
aI0
aI0
aa(lp222
I2
aI0
aI0
aa(lp223
I2
aI0
aI0
aa(lp224
I9
aI0
aI0
aa(lp225
I3
aI0
aI0
aa(lp226
I3
aI0
aI0
aa(lp227
I3
aI0
aI0
aa(lp228
I11
aI0
aI0
aa(lp229
I2
aI0
aI0
aa(lp230
I2
aI0
aI0
aa(lp231
I2
aI0
aI0
aa(lp232
I4
aI0
aI0
aa(lp233
I2
aI0
aI0
aa(lp234
I2
aI0
aI0
aa.