(lp1
(lp2
I4
aI0
aI0
aa(lp3
I2
aI0
aI0
aa(lp4
I2
aI0
aI0
aa(lp5
I2
aI0
aI0
aa(lp6
I2
aI0
aI0
aa(lp7
I2
aI0
aI0
aa(lp8
I2
aI0
aI0
aa(lp9
I2
aI0
aI0
aa(lp10
I14
aI0
aI0
aa(lp11
I2
aI0
aI0
aa(lp12
I3
aI0
aI0
aa(lp13
I4
aI0
aI0
aa(lp14
I4
aI0
aI0
aa(lp15
I2
aI0
aI0
aa(lp16
I5
aI0
aI0
aa(lp17
I2
aI0
aI0
aa(lp18
I2
aI0
aI0
aa(lp19
I2
aI0
aI0
aa(lp20
I2
aI0
aI0
aa(lp21
I2
aI0
aI0
aa(lp22
I3
aI0
aI0
aa(lp23
I5
aI0
aI0
aa(lp24
I2
aI0
aI0
aa(lp25
I3
aI0
aI0
aa(lp26
I6
aI0
aI0
aa(lp27
I5
aI0
aI0
aa(lp28
I5
aI0
aI0
aa(lp29
I2
aI0
aI0
aa(lp30
I2
aI0
aI0
aa(lp31
I2
aI0
aI0
aa(lp32
I3
aI0
aI0
aa(lp33
I2
aI0
aI0
aa(lp34
I4
aI0
aI0
aa(lp35
I2
aI0
aI0
aa(lp36
I2
aI0
aI0
aa(lp37
I3
aI0
aI0
aa(lp38
I3
aI0
aI0
aa(lp39
I2
aI0
aI0
aa(lp40
I4
aI0
aI0
aa(lp41
I3
aI0
aI0
aa(lp42
I4
aI0
aI0
aa(lp43
I2
aI0
aI0
aa(lp44
I2
aI0
aI0
aa(lp45
I2
aI0
aI0
aa(lp46
I5
aI0
aI0
aa(lp47
I4
aI0
aI0
aa(lp48
I3
aI0
aI0
aa(lp49
I2
aI0
aI0
aa(lp50
I2
aI0
aI0
aa(lp51
I2
aI0
aI0
aa(lp52
I12
aI0
aI0
aa(lp53
I2
aI0
aI0
aa(lp54
I3
aI0
aI0
aa(lp55
I2
aI0
aI0
aa(lp56
I3
aI0
aI0
aa(lp57
I5
aI0
aI0
aa(lp58
I6
aI0
aI0
aa(lp59
I2
aI0
aI0
aa(lp60
I2
aI0
aI0
aa(lp61
I2
aI0
aI0
aa(lp62
I2
aI0
aI0
aa(lp63
I4
aI0
aI0
aa(lp64
I5
aI0
aI0
aa(lp65
I4
aI0
aI0
aa(lp66
I2
aI0
aI0
aa(lp67
I16
aI0
aI0
aa.